# 0110nnnnmmmm0011 "mov Rm,Rn"
00000000: 69 43 mov r4,r9
00000000: 60 E3 mov r14,r0
00000000: 61 F3 mov r15,r1
00000000: 68 33 mov r3,r8
FFFFFFFC: 64 63 mov r6,r4
FFFFFFFC: 68 E3 mov r14,r8
FFFFFFFC: 63 13 mov r1,r3
FFFFFFFC: 68 53 mov r5,r8
00400462: 63 73 mov r7,r3
00400462: 66 63 mov r6,r6
00400462: 68 93 mov r9,r8
00400462: 67 C3 mov r12,r7
00001234: 6C 83 mov r8,r12
00001234: 6E 83 mov r8,r14
00001234: 6E 53 mov r5,r14
00001234: 6A 43 mov r4,r10
00008000: 68 C3 mov r12,r8
00008000: 6E 73 mov r7,r14
00008000: 6C 43 mov r4,r12
00008000: 64 63 mov r6,r4
# 1110nnnniiiiiiii "mov #imm,Rn"
00000000: E2 B5 mov #-75,r2
00000000: EE 61 mov #97,r14
00000000: E7 7B mov #123,r7
00000000: EE 77 mov #119,r14
FFFFFFFC: E7 B3 mov #-77,r7
FFFFFFFC: E7 F2 mov #-14,r7
FFFFFFFC: E9 F1 mov #-15,r9
FFFFFFFC: ED 9A mov #-102,r13
00400462: E6 F3 mov #-13,r6
00400462: EC 80 mov #-128,r12
00400462: EF 0D mov #13,r15
00400462: E9 A1 mov #-95,r9
00001234: EC 8D mov #-115,r12
00001234: E9 E0 mov #-32,r9
00001234: E7 B8 mov #-72,r7
00001234: ED D9 mov #-39,r13
00008000: EF F7 mov #-9,r15
00008000: E0 A5 mov #-91,r0
00008000: E8 8C mov #-116,r8
00008000: EB F0 mov #-16,r11
# 11000111dddddddd "mova @(disp,PC),R0"
00000000: C7 E0 mova 0x0000000000000384,r0
00000000: C7 27 mova 0x00000000000000a0,r0
00000000: C7 BC mova 0x00000000000002f4,r0
00000000: C7 EC mova 0x00000000000003b4,r0
FFFFFFFC: C7 CA mova 0x0000000100000328,r0
FFFFFFFC: C7 BF mova 0x00000001000002fc,r0
FFFFFFFC: C7 23 mova 0x000000010000008c,r0
FFFFFFFC: C7 AC mova 0x00000001000002b0,r0
00400462: C7 14 mova 0x00000000004004b4,r0
00400462: C7 8A mova 0x000000000040068c,r0
00400462: C7 18 mova 0x00000000004004c4,r0
00400462: C7 BE mova 0x000000000040075c,r0
00001234: C7 A3 mova 0x00000000000014c4,r0
00001234: C7 D2 mova 0x0000000000001580,r0
00001234: C7 47 mova 0x0000000000001354,r0
00001234: C7 76 mova 0x0000000000001410,r0
00008000: C7 0D mova 0x0000000000008038,r0
00008000: C7 09 mova 0x0000000000008028,r0
00008000: C7 34 mova 0x00000000000080d4,r0
00008000: C7 F6 mova 0x00000000000083dc,r0
# 1001nnnndddddddd "mov.w @(disp,PC),Rn"
00000000: 98 20 mov.w 0x0000000000000044,r8
00000000: 9B 05 mov.w 0x000000000000000e,r11
00000000: 9E 3E mov.w 0x0000000000000080,r14
00000000: 9A ED mov.w 0x00000000000001de,r10
FFFFFFFC: 9A 17 mov.w 0x000000010000002e,r10
FFFFFFFC: 9D 9D mov.w 0x000000010000013a,r13
FFFFFFFC: 9F AA mov.w 0x0000000100000154,r15
FFFFFFFC: 91 90 mov.w 0x0000000100000120,r1
00400462: 90 F2 mov.w 0x000000000040064a,r0
00400462: 99 69 mov.w 0x0000000000400538,r9
00400462: 9B 5B mov.w 0x000000000040051c,r11
00400462: 95 68 mov.w 0x0000000000400536,r5
00001234: 92 2D mov.w 0x0000000000001292,r2
00001234: 99 78 mov.w 0x0000000000001328,r9
00001234: 9D D2 mov.w 0x00000000000013dc,r13
00001234: 96 D6 mov.w 0x00000000000013e4,r6
00008000: 95 B7 mov.w 0x0000000000008172,r5
00008000: 94 EF mov.w 0x00000000000081e2,r4
00008000: 9A 0E mov.w 0x0000000000008020,r10
00008000: 9B 2A mov.w 0x0000000000008058,r11
# 1101nnnndddddddd "mov.l @(disp,PC),Rn"
00000000: DE 73 mov.l 0x00000000000001d0,r14
00000000: D6 5F mov.l 0x0000000000000180,r6
00000000: D0 AF mov.l 0x00000000000002c0,r0
00000000: D0 D8 mov.l 0x0000000000000364,r0
FFFFFFFC: D9 48 mov.l 0x0000000100000120,r9
FFFFFFFC: DC 37 mov.l 0x00000001000000dc,r12
FFFFFFFC: D0 C3 mov.l 0x000000010000030c,r0
FFFFFFFC: DE 7E mov.l 0x00000001000001f8,r14
00400462: DA 68 mov.l 0x0000000000400604,r10
00400462: D0 81 mov.l 0x0000000000400668,r0
00400462: D1 9B mov.l 0x00000000004006d0,r1
00400462: DE EA mov.l 0x000000000040080c,r14
00001234: D2 8E mov.l 0x0000000000001470,r2
00001234: D5 09 mov.l 0x000000000000125c,r5
00001234: DF 43 mov.l 0x0000000000001344,r15
00001234: D4 CD mov.l 0x000000000000156c,r4
00008000: D9 15 mov.l 0x0000000000008058,r9
00008000: DF B7 mov.l 0x00000000000082e0,r15
00008000: D5 0D mov.l 0x0000000000008038,r5
00008000: D2 75 mov.l 0x00000000000081d8,r2
# 0110nnnnmmmm0000 "mov.b @Rm,Rn"
00000000: 62 C0 mov.b @r12,r2
00000000: 63 10 mov.b @r1,r3
00000000: 6C E0 mov.b @r14,r12
00000000: 61 80 mov.b @r8,r1
FFFFFFFC: 68 60 mov.b @r6,r8
FFFFFFFC: 6A 10 mov.b @r1,r10
FFFFFFFC: 63 C0 mov.b @r12,r3
FFFFFFFC: 62 B0 mov.b @r11,r2
00400462: 61 B0 mov.b @r11,r1
00400462: 60 F0 mov.b @r15,r0
00400462: 6D 40 mov.b @r4,r13
00400462: 68 10 mov.b @r1,r8
00001234: 63 80 mov.b @r8,r3
00001234: 6A B0 mov.b @r11,r10
00001234: 6D 70 mov.b @r7,r13
00001234: 60 40 mov.b @r4,r0
00008000: 61 90 mov.b @r9,r1
00008000: 6F F0 mov.b @r15,r15
00008000: 68 30 mov.b @r3,r8
00008000: 68 10 mov.b @r1,r8
# 0110nnnnmmmm0001 "mov.w @Rm,Rn"
00000000: 6E 01 mov.w @r0,r14
00000000: 65 21 mov.w @r2,r5
00000000: 69 51 mov.w @r5,r9
00000000: 6D F1 mov.w @r15,r13
FFFFFFFC: 6E 41 mov.w @r4,r14
FFFFFFFC: 63 D1 mov.w @r13,r3
FFFFFFFC: 6E 01 mov.w @r0,r14
FFFFFFFC: 6B C1 mov.w @r12,r11
00400462: 61 91 mov.w @r9,r1
00400462: 61 41 mov.w @r4,r1
00400462: 6E 31 mov.w @r3,r14
00400462: 6B C1 mov.w @r12,r11
00001234: 69 C1 mov.w @r12,r9
00001234: 60 11 mov.w @r1,r0
00001234: 66 D1 mov.w @r13,r6
00001234: 68 51 mov.w @r5,r8
00008000: 6C 11 mov.w @r1,r12
00008000: 6F 51 mov.w @r5,r15
00008000: 6E A1 mov.w @r10,r14
00008000: 63 51 mov.w @r5,r3
# 0110nnnnmmmm0010 "mov.l @Rm,Rn"
00000000: 6B 62 mov.l @r6,r11
00000000: 63 A2 mov.l @r10,r3
00000000: 6E 32 mov.l @r3,r14
00000000: 67 82 mov.l @r8,r7
FFFFFFFC: 64 42 mov.l @r4,r4
FFFFFFFC: 64 32 mov.l @r3,r4
FFFFFFFC: 64 12 mov.l @r1,r4
FFFFFFFC: 6E A2 mov.l @r10,r14
00400462: 69 22 mov.l @r2,r9
00400462: 69 A2 mov.l @r10,r9
00400462: 66 12 mov.l @r1,r6
00400462: 6F E2 mov.l @r14,r15
00001234: 6A D2 mov.l @r13,r10
00001234: 6C F2 mov.l @r15,r12
00001234: 66 42 mov.l @r4,r6
00001234: 6E E2 mov.l @r14,r14
00008000: 67 62 mov.l @r6,r7
00008000: 60 82 mov.l @r8,r0
00008000: 66 12 mov.l @r1,r6
00008000: 60 52 mov.l @r5,r0
# 0010nnnnmmmm0000 "mov.b Rm,@Rn"
00000000: 2F 60 mov.b r6,@r15
00000000: 2D 80 mov.b r8,@r13
00000000: 20 B0 mov.b r11,@r0
00000000: 22 D0 mov.b r13,@r2
FFFFFFFC: 29 30 mov.b r3,@r9
FFFFFFFC: 2F 00 mov.b r0,@r15
FFFFFFFC: 28 D0 mov.b r13,@r8
FFFFFFFC: 28 90 mov.b r9,@r8
00400462: 24 00 mov.b r0,@r4
00400462: 29 00 mov.b r0,@r9
00400462: 2A 50 mov.b r5,@r10
00400462: 2F 80 mov.b r8,@r15
00001234: 2B B0 mov.b r11,@r11
00001234: 28 70 mov.b r7,@r8
00001234: 2C 50 mov.b r5,@r12
00001234: 2D E0 mov.b r14,@r13
00008000: 25 80 mov.b r8,@r5
00008000: 2E 60 mov.b r6,@r14
00008000: 2D 60 mov.b r6,@r13
00008000: 2B 00 mov.b r0,@r11
# 0010nnnnmmmm0001 "mov.w Rm,@Rn"
00000000: 2E 31 mov.w r3,@r14
00000000: 2F 91 mov.w r9,@r15
00000000: 21 A1 mov.w r10,@r1
00000000: 28 D1 mov.w r13,@r8
FFFFFFFC: 2E C1 mov.w r12,@r14
FFFFFFFC: 20 61 mov.w r6,@r0
FFFFFFFC: 2A D1 mov.w r13,@r10
FFFFFFFC: 28 51 mov.w r5,@r8
00400462: 2F 41 mov.w r4,@r15
00400462: 28 F1 mov.w r15,@r8
00400462: 2D 41 mov.w r4,@r13
00400462: 25 81 mov.w r8,@r5
00001234: 2F E1 mov.w r14,@r15
00001234: 26 B1 mov.w r11,@r6
00001234: 2C F1 mov.w r15,@r12
00001234: 20 81 mov.w r8,@r0
00008000: 28 C1 mov.w r12,@r8
00008000: 2B 61 mov.w r6,@r11
00008000: 2D C1 mov.w r12,@r13
00008000: 28 21 mov.w r2,@r8
# 0010nnnnmmmm0010 "mov.l Rm,@Rn"
00000000: 26 22 mov.l r2,@r6
00000000: 29 E2 mov.l r14,@r9
00000000: 28 D2 mov.l r13,@r8
00000000: 22 12 mov.l r1,@r2
FFFFFFFC: 28 32 mov.l r3,@r8
FFFFFFFC: 24 72 mov.l r7,@r4
FFFFFFFC: 21 C2 mov.l r12,@r1
FFFFFFFC: 2F B2 mov.l r11,@r15
00400462: 2E 82 mov.l r8,@r14
00400462: 29 52 mov.l r5,@r9
00400462: 27 52 mov.l r5,@r7
00400462: 29 62 mov.l r6,@r9
00001234: 2F 32 mov.l r3,@r15
00001234: 28 F2 mov.l r15,@r8
00001234: 2B 62 mov.l r6,@r11
00001234: 2B F2 mov.l r15,@r11
00008000: 20 C2 mov.l r12,@r0
00008000: 2C 62 mov.l r6,@r12
00008000: 2F D2 mov.l r13,@r15
00008000: 20 52 mov.l r5,@r0
# 0110nnnnmmmm0100 "mov.b @Rm+,Rn"
00000000: 66 84 mov.b @r8+,r6
00000000: 6D C4 mov.b @r12+,r13
00000000: 60 34 mov.b @r3+,r0
00000000: 6E 24 mov.b @r2+,r14
FFFFFFFC: 60 C4 mov.b @r12+,r0
FFFFFFFC: 61 D4 mov.b @r13+,r1
FFFFFFFC: 62 C4 mov.b @r12+,r2
FFFFFFFC: 67 B4 mov.b @r11+,r7
00400462: 68 64 mov.b @r6+,r8
00400462: 6C 24 mov.b @r2+,r12
00400462: 61 34 mov.b @r3+,r1
00400462: 61 94 mov.b @r9+,r1
00001234: 67 94 mov.b @r9+,r7
00001234: 6F 94 mov.b @r9+,r15
00001234: 69 14 mov.b @r1+,r9
00001234: 6D D4 mov.b @r13+,r13
00008000: 62 44 mov.b @r4+,r2
00008000: 64 44 mov.b @r4+,r4
00008000: 62 C4 mov.b @r12+,r2
00008000: 6E 04 mov.b @r0+,r14
# 0110nnnnmmmm0101 "mov.w @Rm+,Rn"
00000000: 6D C5 mov.w @r12+,r13
00000000: 67 35 mov.w @r3+,r7
00000000: 64 25 mov.w @r2+,r4
00000000: 68 15 mov.w @r1+,r8
FFFFFFFC: 65 F5 mov.w @r15+,r5
FFFFFFFC: 6C C5 mov.w @r12+,r12
FFFFFFFC: 69 A5 mov.w @r10+,r9
FFFFFFFC: 60 15 mov.w @r1+,r0
00400462: 66 95 mov.w @r9+,r6
00400462: 69 A5 mov.w @r10+,r9
00400462: 6C D5 mov.w @r13+,r12
00400462: 62 25 mov.w @r2+,r2
00001234: 61 A5 mov.w @r10+,r1
00001234: 62 35 mov.w @r3+,r2
00001234: 67 B5 mov.w @r11+,r7
00001234: 6E C5 mov.w @r12+,r14
00008000: 62 C5 mov.w @r12+,r2
00008000: 6A 95 mov.w @r9+,r10
00008000: 6F B5 mov.w @r11+,r15
00008000: 6B C5 mov.w @r12+,r11
# 0110nnnnmmmm0110 "mov.l @Rm+,Rn"
00000000: 63 46 mov.l @r4+,r3
00000000: 68 06 mov.l @r0+,r8
00000000: 64 86 mov.l @r8+,r4
00000000: 69 B6 mov.l @r11+,r9
FFFFFFFC: 6B 96 mov.l @r9+,r11
FFFFFFFC: 6A 16 mov.l @r1+,r10
FFFFFFFC: 6D F6 mov.l @r15+,r13
FFFFFFFC: 60 26 mov.l @r2+,r0
00400462: 60 16 mov.l @r1+,r0
00400462: 6F D6 mov.l @r13+,r15
00400462: 63 36 mov.l @r3+,r3
00400462: 6F C6 mov.l @r12+,r15
00001234: 67 F6 mov.l @r15+,r7
00001234: 66 D6 mov.l @r13+,r6
00001234: 6C B6 mov.l @r11+,r12
00001234: 6D 56 mov.l @r5+,r13
00008000: 68 46 mov.l @r4+,r8
00008000: 66 26 mov.l @r2+,r6
00008000: 66 06 mov.l @r0+,r6
00008000: 6B F6 mov.l @r15+,r11
# 0010nnnnmmmm0100 "mov.b Rm,@-Rn"
00000000: 24 04 mov.b r0,@-r4
00000000: 2E 84 mov.b r8,@-r14
00000000: 28 E4 mov.b r14,@-r8
00000000: 23 94 mov.b r9,@-r3
FFFFFFFC: 2E 24 mov.b r2,@-r14
FFFFFFFC: 28 04 mov.b r0,@-r8
FFFFFFFC: 2B 14 mov.b r1,@-r11
FFFFFFFC: 27 94 mov.b r9,@-r7
00400462: 21 74 mov.b r7,@-r1
00400462: 21 44 mov.b r4,@-r1
00400462: 2F E4 mov.b r14,@-r15
00400462: 2D A4 mov.b r10,@-r13
00001234: 2D 54 mov.b r5,@-r13
00001234: 2F C4 mov.b r12,@-r15
00001234: 25 74 mov.b r7,@-r5
00001234: 2F A4 mov.b r10,@-r15
00008000: 24 64 mov.b r6,@-r4
00008000: 26 D4 mov.b r13,@-r6
00008000: 27 C4 mov.b r12,@-r7
00008000: 23 A4 mov.b r10,@-r3
# 0010nnnnmmmm0101 "mov.w Rm,@-Rn"
00000000: 20 65 mov.w r6,@-r0
00000000: 24 D5 mov.w r13,@-r4
00000000: 23 05 mov.w r0,@-r3
00000000: 23 45 mov.w r4,@-r3
FFFFFFFC: 22 65 mov.w r6,@-r2
FFFFFFFC: 2C 55 mov.w r5,@-r12
FFFFFFFC: 21 75 mov.w r7,@-r1
FFFFFFFC: 25 15 mov.w r1,@-r5
00400462: 2F 35 mov.w r3,@-r15
00400462: 21 55 mov.w r5,@-r1
00400462: 26 85 mov.w r8,@-r6
00400462: 29 85 mov.w r8,@-r9
00001234: 2A 65 mov.w r6,@-r10
00001234: 21 25 mov.w r2,@-r1
00001234: 22 55 mov.w r5,@-r2
00001234: 22 25 mov.w r2,@-r2
00008000: 25 35 mov.w r3,@-r5
00008000: 20 D5 mov.w r13,@-r0
00008000: 23 75 mov.w r7,@-r3
00008000: 21 75 mov.w r7,@-r1
# 0010nnnnmmmm0110 "mov.l Rm,@-Rn"
00000000: 20 86 mov.l r8,@-r0
00000000: 29 B6 mov.l r11,@-r9
00000000: 25 A6 mov.l r10,@-r5
00000000: 28 D6 mov.l r13,@-r8
FFFFFFFC: 2E 56 mov.l r5,@-r14
FFFFFFFC: 2A D6 mov.l r13,@-r10
FFFFFFFC: 28 F6 mov.l r15,@-r8
FFFFFFFC: 28 26 mov.l r2,@-r8
00400462: 27 36 mov.l r3,@-r7
00400462: 2B F6 mov.l r15,@-r11
00400462: 24 C6 mov.l r12,@-r4
00400462: 2D C6 mov.l r12,@-r13
00001234: 29 B6 mov.l r11,@-r9
00001234: 22 96 mov.l r9,@-r2
00001234: 22 06 mov.l r0,@-r2
00001234: 27 46 mov.l r4,@-r7
00008000: 2E C6 mov.l r12,@-r14
00008000: 20 E6 mov.l r14,@-r0
00008000: 26 26 mov.l r2,@-r6
00008000: 25 F6 mov.l r15,@-r5
# 10000100mmmmdddd "mov.b @(disp,Rm),R0"
00000000: 84 E3 mov.b @(3,r14),r0
00000000: 84 EB mov.b @(11,r14),r0
00000000: 84 FC mov.b @(12,r15),r0
00000000: 84 74 mov.b @(4,r7),r0
FFFFFFFC: 84 D2 mov.b @(2,r13),r0
FFFFFFFC: 84 5F mov.b @(15,r5),r0
FFFFFFFC: 84 AE mov.b @(14,r10),r0
FFFFFFFC: 84 61 mov.b @(1,r6),r0
00400462: 84 BA mov.b @(10,r11),r0
00400462: 84 E4 mov.b @(4,r14),r0
00400462: 84 41 mov.b @(1,r4),r0
00400462: 84 5A mov.b @(10,r5),r0
00001234: 84 15 mov.b @(5,r1),r0
00001234: 84 EF mov.b @(15,r14),r0
00001234: 84 28 mov.b @(8,r2),r0
00001234: 84 E2 mov.b @(2,r14),r0
00008000: 84 7D mov.b @(13,r7),r0
00008000: 84 69 mov.b @(9,r6),r0
00008000: 84 07 mov.b @(7,r0),r0
00008000: 84 CA mov.b @(10,r12),r0
# 10000101mmmmdddd "mov.w @(disp,Rm),R0"
00000000: 85 3B mov.w @(22,r3),r0
00000000: 85 44 mov.w @(8,r4),r0
00000000: 85 48 mov.w @(16,r4),r0
00000000: 85 76 mov.w @(12,r7),r0
FFFFFFFC: 85 36 mov.w @(12,r3),r0
FFFFFFFC: 85 D0 mov.w @(0,r13),r0
FFFFFFFC: 85 CB mov.w @(22,r12),r0
FFFFFFFC: 85 AF mov.w @(30,r10),r0
00400462: 85 60 mov.w @(0,r6),r0
00400462: 85 80 mov.w @(0,r8),r0
00400462: 85 2C mov.w @(24,r2),r0
00400462: 85 14 mov.w @(8,r1),r0
00001234: 85 0F mov.w @(30,r0),r0
00001234: 85 F1 mov.w @(2,r15),r0
00001234: 85 8E mov.w @(28,r8),r0
00001234: 85 4D mov.w @(26,r4),r0
00008000: 85 68 mov.w @(16,r6),r0
00008000: 85 46 mov.w @(12,r4),r0
00008000: 85 9E mov.w @(28,r9),r0
00008000: 85 29 mov.w @(18,r2),r0
# 0101nnnnmmmmdddd "mov.l @(disp,Rm),Rn"
00000000: 57 50 mov.l @(0,r5),r7
00000000: 53 AF mov.l @(60,r10),r3
00000000: 52 5C mov.l @(48,r5),r2
00000000: 5D C5 mov.l @(20,r12),r13
FFFFFFFC: 50 A0 mov.l @(0,r10),r0
FFFFFFFC: 57 A0 mov.l @(0,r10),r7
FFFFFFFC: 5C 9E mov.l @(56,r9),r12
FFFFFFFC: 55 58 mov.l @(32,r5),r5
00400462: 5E 02 mov.l @(8,r0),r14
00400462: 5C 13 mov.l @(12,r1),r12
00400462: 5F 5E mov.l @(56,r5),r15
00400462: 58 78 mov.l @(32,r7),r8
00001234: 51 19 mov.l @(36,r1),r1
00001234: 56 0D mov.l @(52,r0),r6
00001234: 53 2B mov.l @(44,r2),r3
00001234: 5E 4A mov.l @(40,r4),r14
00008000: 56 64 mov.l @(16,r6),r6
00008000: 57 FB mov.l @(44,r15),r7
00008000: 5B E0 mov.l @(0,r14),r11
00008000: 54 02 mov.l @(8,r0),r4
# 10000000nnnndddd "mov.b R0,@(disp,Rn)"
00000000: 80 7C mov.b r0,@(12,r7)
00000000: 80 E9 mov.b r0,@(9,r14)
00000000: 80 DA mov.b r0,@(10,r13)
00000000: 80 3C mov.b r0,@(12,r3)
FFFFFFFC: 80 41 mov.b r0,@(1,r4)
FFFFFFFC: 80 EE mov.b r0,@(14,r14)
FFFFFFFC: 80 96 mov.b r0,@(6,r9)
FFFFFFFC: 80 75 mov.b r0,@(5,r7)
00400462: 80 6D mov.b r0,@(13,r6)
00400462: 80 A7 mov.b r0,@(7,r10)
00400462: 80 A4 mov.b r0,@(4,r10)
00400462: 80 22 mov.b r0,@(2,r2)
00001234: 80 FA mov.b r0,@(10,r15)
00001234: 80 24 mov.b r0,@(4,r2)
00001234: 80 EC mov.b r0,@(12,r14)
00001234: 80 4D mov.b r0,@(13,r4)
00008000: 80 E7 mov.b r0,@(7,r14)
00008000: 80 EA mov.b r0,@(10,r14)
00008000: 80 FA mov.b r0,@(10,r15)
00008000: 80 65 mov.b r0,@(5,r6)
# 10000001nnnndddd "mov.w R0,@(disp,Rn)"
00000000: 81 A3 mov.w r0,@(6,r10)
00000000: 81 7A mov.w r0,@(20,r7)
00000000: 81 45 mov.w r0,@(10,r4)
00000000: 81 B9 mov.w r0,@(18,r11)
FFFFFFFC: 81 4D mov.w r0,@(26,r4)
FFFFFFFC: 81 56 mov.w r0,@(12,r5)
FFFFFFFC: 81 B6 mov.w r0,@(12,r11)
FFFFFFFC: 81 AB mov.w r0,@(22,r10)
00400462: 81 A8 mov.w r0,@(16,r10)
00400462: 81 05 mov.w r0,@(10,r0)
00400462: 81 75 mov.w r0,@(10,r7)
00400462: 81 39 mov.w r0,@(18,r3)
00001234: 81 99 mov.w r0,@(18,r9)
00001234: 81 92 mov.w r0,@(4,r9)
00001234: 81 B8 mov.w r0,@(16,r11)
00001234: 81 B9 mov.w r0,@(18,r11)
00008000: 81 65 mov.w r0,@(10,r6)
00008000: 81 83 mov.w r0,@(6,r8)
00008000: 81 1A mov.w r0,@(20,r1)
00008000: 81 1B mov.w r0,@(22,r1)
# 0001nnnnmmmmdddd "mov.l Rm,@(disp,Rn)"
00000000: 16 7D mov.l r7,@(52,r6)
00000000: 19 C6 mov.l r12,@(24,r9)
00000000: 11 3A mov.l r3,@(40,r1)
00000000: 16 F6 mov.l r15,@(24,r6)
FFFFFFFC: 19 42 mov.l r4,@(8,r9)
FFFFFFFC: 1E 14 mov.l r1,@(16,r14)
FFFFFFFC: 19 5E mov.l r5,@(56,r9)
FFFFFFFC: 17 49 mov.l r4,@(36,r7)
00400462: 1F F8 mov.l r15,@(32,r15)
00400462: 1B 6F mov.l r6,@(60,r11)
00400462: 14 4B mov.l r4,@(44,r4)
00400462: 19 94 mov.l r9,@(16,r9)
00001234: 1B 01 mov.l r0,@(4,r11)
00001234: 13 9A mov.l r9,@(40,r3)
00001234: 19 C5 mov.l r12,@(20,r9)
00001234: 18 F9 mov.l r15,@(36,r8)
00008000: 1A 47 mov.l r4,@(28,r10)
00008000: 14 17 mov.l r1,@(28,r4)
00008000: 17 1C mov.l r1,@(48,r7)
00008000: 1D 63 mov.l r6,@(12,r13)
# 0000nnnnmmmm1100 "mov.b @(R0,Rm),Rn"
00000000: 0B FC mov.b @(r0,r15),r11
00000000: 01 7C mov.b @(r0,r7),r1
00000000: 0A 4C mov.b @(r0,r4),r10
00000000: 01 1C mov.b @(r0,r1),r1
FFFFFFFC: 0A DC mov.b @(r0,r13),r10
FFFFFFFC: 06 2C mov.b @(r0,r2),r6
FFFFFFFC: 00 2C mov.b @(r0,r2),r0
FFFFFFFC: 0B 5C mov.b @(r0,r5),r11
00400462: 0B 4C mov.b @(r0,r4),r11
00400462: 0F 6C mov.b @(r0,r6),r15
00400462: 05 2C mov.b @(r0,r2),r5
00400462: 08 3C mov.b @(r0,r3),r8
00001234: 06 1C mov.b @(r0,r1),r6
00001234: 08 DC mov.b @(r0,r13),r8
00001234: 01 BC mov.b @(r0,r11),r1
00001234: 0D 9C mov.b @(r0,r9),r13
00008000: 0E 1C mov.b @(r0,r1),r14
00008000: 04 6C mov.b @(r0,r6),r4
00008000: 0B DC mov.b @(r0,r13),r11
00008000: 02 EC mov.b @(r0,r14),r2
# 0000nnnnmmmm1101 "mov.w @(R0,Rm),Rn"
00000000: 0B 7D mov.w @(r0,r7),r11
00000000: 0C CD mov.w @(r0,r12),r12
00000000: 0A 8D mov.w @(r0,r8),r10
00000000: 00 0D mov.w @(r0,r0),r0
FFFFFFFC: 01 9D mov.w @(r0,r9),r1
FFFFFFFC: 0C 8D mov.w @(r0,r8),r12
FFFFFFFC: 07 FD mov.w @(r0,r15),r7
FFFFFFFC: 01 8D mov.w @(r0,r8),r1
00400462: 0E AD mov.w @(r0,r10),r14
00400462: 09 5D mov.w @(r0,r5),r9
00400462: 00 7D mov.w @(r0,r7),r0
00400462: 06 CD mov.w @(r0,r12),r6
00001234: 09 3D mov.w @(r0,r3),r9
00001234: 0B 2D mov.w @(r0,r2),r11
00001234: 0B ED mov.w @(r0,r14),r11
00001234: 0B BD mov.w @(r0,r11),r11
00008000: 04 CD mov.w @(r0,r12),r4
00008000: 04 5D mov.w @(r0,r5),r4
00008000: 01 9D mov.w @(r0,r9),r1
00008000: 04 4D mov.w @(r0,r4),r4
# 0000nnnnmmmm1110 "mov.l @(R0,Rm),Rn"
00000000: 07 0E mov.l @(r0,r0),r7
00000000: 06 AE mov.l @(r0,r10),r6
00000000: 0B 4E mov.l @(r0,r4),r11
00000000: 0C 7E mov.l @(r0,r7),r12
FFFFFFFC: 03 5E mov.l @(r0,r5),r3
FFFFFFFC: 00 AE mov.l @(r0,r10),r0
FFFFFFFC: 0F 5E mov.l @(r0,r5),r15
FFFFFFFC: 08 3E mov.l @(r0,r3),r8
00400462: 07 6E mov.l @(r0,r6),r7
00400462: 0B DE mov.l @(r0,r13),r11
00400462: 0C 4E mov.l @(r0,r4),r12
00400462: 05 6E mov.l @(r0,r6),r5
00001234: 0F CE mov.l @(r0,r12),r15
00001234: 07 5E mov.l @(r0,r5),r7
00001234: 0F 1E mov.l @(r0,r1),r15
00001234: 09 3E mov.l @(r0,r3),r9
00008000: 0B 3E mov.l @(r0,r3),r11
00008000: 01 3E mov.l @(r0,r3),r1
00008000: 0C BE mov.l @(r0,r11),r12
00008000: 04 6E mov.l @(r0,r6),r4
# 0000nnnnmmmm0100 "mov.b Rm,@(R0,Rn)"
00000000: 0D 54 mov.b r5,@(r0,r13)
00000000: 0D 24 mov.b r2,@(r0,r13)
00000000: 01 E4 mov.b r14,@(r0,r1)
00000000: 0E 24 mov.b r2,@(r0,r14)
FFFFFFFC: 0D 64 mov.b r6,@(r0,r13)
FFFFFFFC: 06 A4 mov.b r10,@(r0,r6)
FFFFFFFC: 04 14 mov.b r1,@(r0,r4)
FFFFFFFC: 06 C4 mov.b r12,@(r0,r6)
00400462: 02 34 mov.b r3,@(r0,r2)
00400462: 0B 64 mov.b r6,@(r0,r11)
00400462: 0F 84 mov.b r8,@(r0,r15)
00400462: 02 E4 mov.b r14,@(r0,r2)
00001234: 0A F4 mov.b r15,@(r0,r10)
00001234: 0D 54 mov.b r5,@(r0,r13)
00001234: 05 94 mov.b r9,@(r0,r5)
00001234: 04 04 mov.b r0,@(r0,r4)
00008000: 00 74 mov.b r7,@(r0,r0)
00008000: 0E D4 mov.b r13,@(r0,r14)
00008000: 0A 14 mov.b r1,@(r0,r10)
00008000: 07 44 mov.b r4,@(r0,r7)
# 0000nnnnmmmm0101 "mov.w Rm,@(R0,Rn)"
00000000: 06 25 mov.w r2,@(r0,r6)
00000000: 0A A5 mov.w r10,@(r0,r10)
00000000: 07 15 mov.w r1,@(r0,r7)
00000000: 06 65 mov.w r6,@(r0,r6)
FFFFFFFC: 0D 05 mov.w r0,@(r0,r13)
FFFFFFFC: 03 65 mov.w r6,@(r0,r3)
FFFFFFFC: 05 D5 mov.w r13,@(r0,r5)
FFFFFFFC: 02 A5 mov.w r10,@(r0,r2)
00400462: 04 F5 mov.w r15,@(r0,r4)
00400462: 0C 15 mov.w r1,@(r0,r12)
00400462: 0E B5 mov.w r11,@(r0,r14)
00400462: 0B 85 mov.w r8,@(r0,r11)
00001234: 07 05 mov.w r0,@(r0,r7)
00001234: 02 C5 mov.w r12,@(r0,r2)
00001234: 07 55 mov.w r5,@(r0,r7)
00001234: 05 B5 mov.w r11,@(r0,r5)
00008000: 0C 65 mov.w r6,@(r0,r12)
00008000: 09 A5 mov.w r10,@(r0,r9)
00008000: 0B 75 mov.w r7,@(r0,r11)
00008000: 06 A5 mov.w r10,@(r0,r6)
# 0000nnnnmmmm0110 "mov.l Rm,@(R0,Rn)"
00000000: 0E 86 mov.l r8,@(r0,r14)
00000000: 0D 06 mov.l r0,@(r0,r13)
00000000: 05 A6 mov.l r10,@(r0,r5)
00000000: 01 C6 mov.l r12,@(r0,r1)
FFFFFFFC: 0E 66 mov.l r6,@(r0,r14)
FFFFFFFC: 02 16 mov.l r1,@(r0,r2)
FFFFFFFC: 03 96 mov.l r9,@(r0,r3)
FFFFFFFC: 06 D6 mov.l r13,@(r0,r6)
00400462: 08 A6 mov.l r10,@(r0,r8)
00400462: 04 36 mov.l r3,@(r0,r4)
00400462: 06 46 mov.l r4,@(r0,r6)
00400462: 05 F6 mov.l r15,@(r0,r5)
00001234: 0A C6 mov.l r12,@(r0,r10)
00001234: 0A 86 mov.l r8,@(r0,r10)
00001234: 0F 16 mov.l r1,@(r0,r15)
00001234: 0D 16 mov.l r1,@(r0,r13)
00008000: 0B D6 mov.l r13,@(r0,r11)
00008000: 0A E6 mov.l r14,@(r0,r10)
00008000: 0A 36 mov.l r3,@(r0,r10)
00008000: 07 F6 mov.l r15,@(r0,r7)
# 11000100dddddddd "mov.b @(disp,GBR),R0"
00000000: C4 52 mov.b @(82,gbr),r0
00000000: C4 E9 mov.b @(233,gbr),r0
00000000: C4 41 mov.b @(65,gbr),r0
00000000: C4 F2 mov.b @(242,gbr),r0
FFFFFFFC: C4 0B mov.b @(11,gbr),r0
FFFFFFFC: C4 6D mov.b @(109,gbr),r0
FFFFFFFC: C4 5D mov.b @(93,gbr),r0
FFFFFFFC: C4 6F mov.b @(111,gbr),r0
00400462: C4 4B mov.b @(75,gbr),r0
00400462: C4 C5 mov.b @(197,gbr),r0
00400462: C4 13 mov.b @(19,gbr),r0
00400462: C4 EC mov.b @(236,gbr),r0
00001234: C4 0D mov.b @(13,gbr),r0
00001234: C4 CD mov.b @(205,gbr),r0
00001234: C4 1E mov.b @(30,gbr),r0
00001234: C4 21 mov.b @(33,gbr),r0
00008000: C4 37 mov.b @(55,gbr),r0
00008000: C4 C8 mov.b @(200,gbr),r0
00008000: C4 16 mov.b @(22,gbr),r0
00008000: C4 E6 mov.b @(230,gbr),r0
# 11000101dddddddd "mov.w @(disp,GBR),R0"
00000000: C5 51 mov.w @(162,gbr),r0
00000000: C5 33 mov.w @(102,gbr),r0
00000000: C5 E2 mov.w @(452,gbr),r0
00000000: C5 78 mov.w @(240,gbr),r0
FFFFFFFC: C5 64 mov.w @(200,gbr),r0
FFFFFFFC: C5 DE mov.w @(444,gbr),r0
FFFFFFFC: C5 BF mov.w @(382,gbr),r0
FFFFFFFC: C5 B2 mov.w @(356,gbr),r0
00400462: C5 9B mov.w @(310,gbr),r0
00400462: C5 66 mov.w @(204,gbr),r0
00400462: C5 B5 mov.w @(362,gbr),r0
00400462: C5 D8 mov.w @(432,gbr),r0
00001234: C5 E7 mov.w @(462,gbr),r0
00001234: C5 D8 mov.w @(432,gbr),r0
00001234: C5 74 mov.w @(232,gbr),r0
00001234: C5 CC mov.w @(408,gbr),r0
00008000: C5 2D mov.w @(90,gbr),r0
00008000: C5 73 mov.w @(230,gbr),r0
00008000: C5 EB mov.w @(470,gbr),r0
00008000: C5 3E mov.w @(124,gbr),r0
# 11000110dddddddd "mov.l @(disp,GBR),R0"
00000000: C6 9B mov.l @(620,gbr),r0
00000000: C6 CA mov.l @(808,gbr),r0
00000000: C6 61 mov.l @(388,gbr),r0
00000000: C6 B4 mov.l @(720,gbr),r0
FFFFFFFC: C6 F2 mov.l @(968,gbr),r0
FFFFFFFC: C6 E7 mov.l @(924,gbr),r0
FFFFFFFC: C6 C3 mov.l @(780,gbr),r0
FFFFFFFC: C6 E1 mov.l @(900,gbr),r0
00400462: C6 BE mov.l @(760,gbr),r0
00400462: C6 C3 mov.l @(780,gbr),r0
00400462: C6 2A mov.l @(168,gbr),r0
00400462: C6 05 mov.l @(20,gbr),r0
00001234: C6 33 mov.l @(204,gbr),r0
00001234: C6 C6 mov.l @(792,gbr),r0
00001234: C6 84 mov.l @(528,gbr),r0
00001234: C6 4B mov.l @(300,gbr),r0
00008000: C6 7D mov.l @(500,gbr),r0
00008000: C6 80 mov.l @(512,gbr),r0
00008000: C6 54 mov.l @(336,gbr),r0
00008000: C6 25 mov.l @(148,gbr),r0
# 11000000dddddddd "mov.b R0,@(disp,GBR)"
00000000: C0 7B mov.b r0,@(123,gbr)
00000000: C0 79 mov.b r0,@(121,gbr)
00000000: C0 D9 mov.b r0,@(217,gbr)
00000000: C0 A8 mov.b r0,@(168,gbr)
FFFFFFFC: C0 EB mov.b r0,@(235,gbr)
FFFFFFFC: C0 F2 mov.b r0,@(242,gbr)
FFFFFFFC: C0 3B mov.b r0,@(59,gbr)
FFFFFFFC: C0 60 mov.b r0,@(96,gbr)
00400462: C0 2F mov.b r0,@(47,gbr)
00400462: C0 19 mov.b r0,@(25,gbr)
00400462: C0 CB mov.b r0,@(203,gbr)
00400462: C0 D7 mov.b r0,@(215,gbr)
00001234: C0 D8 mov.b r0,@(216,gbr)
00001234: C0 DE mov.b r0,@(222,gbr)
00001234: C0 03 mov.b r0,@(3,gbr)
00001234: C0 DB mov.b r0,@(219,gbr)
00008000: C0 51 mov.b r0,@(81,gbr)
00008000: C0 C4 mov.b r0,@(196,gbr)
00008000: C0 29 mov.b r0,@(41,gbr)
00008000: C0 2E mov.b r0,@(46,gbr)
# 11000001dddddddd "mov.w R0,@(disp,GBR)"
00000000: C1 02 mov.w r0,@(4,gbr)
00000000: C1 96 mov.w r0,@(300,gbr)
00000000: C1 6C mov.w r0,@(216,gbr)
00000000: C1 EE mov.w r0,@(476,gbr)
FFFFFFFC: C1 DD mov.w r0,@(442,gbr)
FFFFFFFC: C1 92 mov.w r0,@(292,gbr)
FFFFFFFC: C1 18 mov.w r0,@(48,gbr)
FFFFFFFC: C1 2E mov.w r0,@(92,gbr)
00400462: C1 65 mov.w r0,@(202,gbr)
00400462: C1 42 mov.w r0,@(132,gbr)
00400462: C1 56 mov.w r0,@(172,gbr)
00400462: C1 5F mov.w r0,@(190,gbr)
00001234: C1 C6 mov.w r0,@(396,gbr)
00001234: C1 F7 mov.w r0,@(494,gbr)
00001234: C1 43 mov.w r0,@(134,gbr)
00001234: C1 6A mov.w r0,@(212,gbr)
00008000: C1 82 mov.w r0,@(260,gbr)
00008000: C1 E2 mov.w r0,@(452,gbr)
00008000: C1 95 mov.w r0,@(298,gbr)
00008000: C1 8F mov.w r0,@(286,gbr)
# 11000010dddddddd "mov.l R0,@(disp,GBR)"
00000000: C2 33 mov.l r0,@(204,gbr)
00000000: C2 D6 mov.l r0,@(856,gbr)
00000000: C2 8A mov.l r0,@(552,gbr)
00000000: C2 85 mov.l r0,@(532,gbr)
FFFFFFFC: C2 E5 mov.l r0,@(916,gbr)
FFFFFFFC: C2 19 mov.l r0,@(100,gbr)
FFFFFFFC: C2 7F mov.l r0,@(508,gbr)
FFFFFFFC: C2 23 mov.l r0,@(140,gbr)
00400462: C2 9D mov.l r0,@(628,gbr)
00400462: C2 36 mov.l r0,@(216,gbr)
00400462: C2 75 mov.l r0,@(468,gbr)
00400462: C2 CE mov.l r0,@(824,gbr)
00001234: C2 ED mov.l r0,@(948,gbr)
00001234: C2 D1 mov.l r0,@(836,gbr)
00001234: C2 F3 mov.l r0,@(972,gbr)
00001234: C2 76 mov.l r0,@(472,gbr)
00008000: C2 E4 mov.l r0,@(912,gbr)
00008000: C2 0C mov.l r0,@(48,gbr)
00008000: C2 F1 mov.l r0,@(964,gbr)
00008000: C2 A3 mov.l r0,@(652,gbr)
# 0000nnnn00101001 "movt Rn"
00000000: 0D 29 movt r13
00000000: 05 29 movt r5
00000000: 07 29 movt r7
00000000: 08 29 movt r8
FFFFFFFC: 0B 29 movt r11
FFFFFFFC: 0D 29 movt r13
FFFFFFFC: 02 29 movt r2
FFFFFFFC: 09 29 movt r9
00400462: 02 29 movt r2
00400462: 0E 29 movt r14
00400462: 01 29 movt r1
00400462: 09 29 movt r9
00001234: 0A 29 movt r10
00001234: 01 29 movt r1
00001234: 04 29 movt r4
00001234: 06 29 movt r6
00008000: 00 29 movt r0
00008000: 01 29 movt r1
00008000: 05 29 movt r5
00008000: 07 29 movt r7
# 0110nnnnmmmm1000 "swap.b Rm,Rn"
00000000: 67 E8 swap.b r14,r7
00000000: 66 88 swap.b r8,r6
00000000: 63 D8 swap.b r13,r3
00000000: 6D 68 swap.b r6,r13
FFFFFFFC: 6F 08 swap.b r0,r15
FFFFFFFC: 62 A8 swap.b r10,r2
FFFFFFFC: 6E A8 swap.b r10,r14
FFFFFFFC: 64 78 swap.b r7,r4
00400462: 6B 48 swap.b r4,r11
00400462: 64 E8 swap.b r14,r4
00400462: 67 E8 swap.b r14,r7
00400462: 6D 28 swap.b r2,r13
00001234: 61 C8 swap.b r12,r1
00001234: 6B 18 swap.b r1,r11
00001234: 6A F8 swap.b r15,r10
00001234: 65 E8 swap.b r14,r5
00008000: 69 C8 swap.b r12,r9
00008000: 6A 38 swap.b r3,r10
00008000: 6E E8 swap.b r14,r14
00008000: 65 18 swap.b r1,r5
# 0110nnnnmmmm1001 "swap.w Rm,Rn"
00000000: 69 E9 swap.w r14,r9
00000000: 63 79 swap.w r7,r3
00000000: 6C 79 swap.w r7,r12
00000000: 6C 69 swap.w r6,r12
FFFFFFFC: 66 09 swap.w r0,r6
FFFFFFFC: 6D D9 swap.w r13,r13
FFFFFFFC: 6D E9 swap.w r14,r13
FFFFFFFC: 65 69 swap.w r6,r5
00400462: 63 99 swap.w r9,r3
00400462: 6A B9 swap.w r11,r10
00400462: 6A 79 swap.w r7,r10
00400462: 68 F9 swap.w r15,r8
00001234: 6C 09 swap.w r0,r12
00001234: 61 49 swap.w r4,r1
00001234: 67 A9 swap.w r10,r7
00001234: 6D B9 swap.w r11,r13
00008000: 6A 09 swap.w r0,r10
00008000: 62 49 swap.w r4,r2
00008000: 67 D9 swap.w r13,r7
00008000: 6B 39 swap.w r3,r11
# 0010nnnnmmmm1101 "xtrct Rm,Rn"
00000000: 2E 7D xtrct r7,r14
00000000: 27 5D xtrct r5,r7
00000000: 2F 1D xtrct r1,r15
00000000: 2E BD xtrct r11,r14
FFFFFFFC: 2C 8D xtrct r8,r12
FFFFFFFC: 2C ED xtrct r14,r12
FFFFFFFC: 25 4D xtrct r4,r5
FFFFFFFC: 24 6D xtrct r6,r4
00400462: 26 0D xtrct r0,r6
00400462: 23 1D xtrct r1,r3
00400462: 25 DD xtrct r13,r5
00400462: 29 3D xtrct r3,r9
00001234: 27 BD xtrct r11,r7
00001234: 2A CD xtrct r12,r10
00001234: 21 5D xtrct r5,r1
00001234: 28 7D xtrct r7,r8
00008000: 21 FD xtrct r15,r1
00008000: 2F 5D xtrct r5,r15
00008000: 28 6D xtrct r6,r8
00008000: 2C DD xtrct r13,r12
# 0011nnnnmmmm1100 "add Rm,Rn"
00000000: 31 FC add r15,r1
00000000: 3A DC add r13,r10
00000000: 32 2C add r2,r2
00000000: 3D 9C add r9,r13
FFFFFFFC: 34 1C add r1,r4
FFFFFFFC: 30 AC add r10,r0
FFFFFFFC: 3B 1C add r1,r11
FFFFFFFC: 33 EC add r14,r3
00400462: 30 0C add r0,r0
00400462: 3B 1C add r1,r11
00400462: 36 2C add r2,r6
00400462: 35 2C add r2,r5
00001234: 35 EC add r14,r5
00001234: 30 BC add r11,r0
00001234: 3C 9C add r9,r12
00001234: 3E 2C add r2,r14
00008000: 3E 9C add r9,r14
00008000: 3B AC add r10,r11
00008000: 31 1C add r1,r1
00008000: 3E 3C add r3,r14
# 0111nnnniiiiiiii "add #imm,Rn"
00000000: 71 62 add #98,r1
00000000: 77 69 add #105,r7
00000000: 75 FE add #-2,r5
00000000: 77 A1 add #-95,r7
FFFFFFFC: 7E 79 add #121,r14
FFFFFFFC: 78 32 add #50,r8
FFFFFFFC: 75 9C add #-100,r5
FFFFFFFC: 7D B3 add #-77,r13
00400462: 78 AC add #-84,r8
00400462: 72 BE add #-66,r2
00400462: 7A B2 add #-78,r10
00400462: 70 E1 add #-31,r0
00001234: 76 FB add #-5,r6
00001234: 78 E5 add #-27,r8
00001234: 7C 65 add #101,r12
00001234: 78 D0 add #-48,r8
00008000: 74 B8 add #-72,r4
00008000: 7F 94 add #-108,r15
00008000: 7D F4 add #-12,r13
00008000: 7F CE add #-50,r15
# 0011nnnnmmmm1110 "addc Rm,Rn"
00000000: 3F 3E addc r3,r15
00000000: 3C CE addc r12,r12
00000000: 3E 0E addc r0,r14
00000000: 31 EE addc r14,r1
FFFFFFFC: 38 CE addc r12,r8
FFFFFFFC: 3A 6E addc r6,r10
FFFFFFFC: 33 8E addc r8,r3
FFFFFFFC: 3A 7E addc r7,r10
00400462: 30 0E addc r0,r0
00400462: 32 EE addc r14,r2
00400462: 36 BE addc r11,r6
00400462: 3C 6E addc r6,r12
00001234: 39 1E addc r1,r9
00001234: 3A 4E addc r4,r10
00001234: 31 4E addc r4,r1
00001234: 3E AE addc r10,r14
00008000: 3B 2E addc r2,r11
00008000: 38 2E addc r2,r8
00008000: 3C DE addc r13,r12
00008000: 33 5E addc r5,r3
# 0011nnnnmmmm1111 "addv Rm,Rn"
00000000: 3C BF addv r11,r12
00000000: 38 CF addv r12,r8
00000000: 38 BF addv r11,r8
00000000: 3A FF addv r15,r10
FFFFFFFC: 30 BF addv r11,r0
FFFFFFFC: 3F 2F addv r2,r15
FFFFFFFC: 3D FF addv r15,r13
FFFFFFFC: 3C 5F addv r5,r12
00400462: 3A 0F addv r0,r10
00400462: 36 0F addv r0,r6
00400462: 33 0F addv r0,r3
00400462: 3F DF addv r13,r15
00001234: 3F 6F addv r6,r15
00001234: 3F EF addv r14,r15
00001234: 3C 7F addv r7,r12
00001234: 38 5F addv r5,r8
00008000: 34 CF addv r12,r4
00008000: 33 8F addv r8,r3
00008000: 35 2F addv r2,r5
00008000: 3F 3F addv r3,r15
# 10001000iiiiiiii "cmp/eq #imm,R0"
00000000: 88 9F cmp/eq #-97,r0
00000000: 88 6A cmp/eq #106,r0
00000000: 88 0B cmp/eq #11,r0
00000000: 88 E1 cmp/eq #-31,r0
FFFFFFFC: 88 82 cmp/eq #-126,r0
FFFFFFFC: 88 3B cmp/eq #59,r0
FFFFFFFC: 88 5F cmp/eq #95,r0
FFFFFFFC: 88 E4 cmp/eq #-28,r0
00400462: 88 59 cmp/eq #89,r0
00400462: 88 A1 cmp/eq #-95,r0
00400462: 88 BC cmp/eq #-68,r0
00400462: 88 EF cmp/eq #-17,r0
00001234: 88 A6 cmp/eq #-90,r0
00001234: 88 DA cmp/eq #-38,r0
00001234: 88 26 cmp/eq #38,r0
00001234: 88 34 cmp/eq #52,r0
00008000: 88 30 cmp/eq #48,r0
00008000: 88 B1 cmp/eq #-79,r0
00008000: 88 34 cmp/eq #52,r0
00008000: 88 15 cmp/eq #21,r0
# 0011nnnnmmmm0000 "cmp/eq Rm,Rn"
00000000: 3E 70 cmp/eq r7,r14
00000000: 3B B0 cmp/eq r11,r11
00000000: 3C 90 cmp/eq r9,r12
00000000: 37 40 cmp/eq r4,r7
FFFFFFFC: 35 B0 cmp/eq r11,r5
FFFFFFFC: 36 80 cmp/eq r8,r6
FFFFFFFC: 3A B0 cmp/eq r11,r10
FFFFFFFC: 33 60 cmp/eq r6,r3
00400462: 37 40 cmp/eq r4,r7
00400462: 31 90 cmp/eq r9,r1
00400462: 3C F0 cmp/eq r15,r12
00400462: 3A 20 cmp/eq r2,r10
00001234: 36 70 cmp/eq r7,r6
00001234: 3B 20 cmp/eq r2,r11
00001234: 39 20 cmp/eq r2,r9
00001234: 3A 70 cmp/eq r7,r10
00008000: 37 30 cmp/eq r3,r7
00008000: 38 D0 cmp/eq r13,r8
00008000: 3D 10 cmp/eq r1,r13
00008000: 34 00 cmp/eq r0,r4
# 0011nnnnmmmm0010 "cmp/hs Rm,Rn"
00000000: 31 D2 cmp/hs r13,r1
00000000: 38 C2 cmp/hs r12,r8
00000000: 36 E2 cmp/hs r14,r6
00000000: 38 12 cmp/hs r1,r8
FFFFFFFC: 36 E2 cmp/hs r14,r6
FFFFFFFC: 32 72 cmp/hs r7,r2
FFFFFFFC: 34 C2 cmp/hs r12,r4
FFFFFFFC: 3F E2 cmp/hs r14,r15
00400462: 3B 62 cmp/hs r6,r11
00400462: 32 72 cmp/hs r7,r2
00400462: 38 62 cmp/hs r6,r8
00400462: 35 F2 cmp/hs r15,r5
00001234: 37 62 cmp/hs r6,r7
00001234: 3C C2 cmp/hs r12,r12
00001234: 3B A2 cmp/hs r10,r11
00001234: 35 52 cmp/hs r5,r5
00008000: 31 82 cmp/hs r8,r1
00008000: 3E D2 cmp/hs r13,r14
00008000: 3B F2 cmp/hs r15,r11
00008000: 3F 02 cmp/hs r0,r15
# 0011nnnnmmmm0011 "cmp/ge Rm,Rn"
00000000: 39 23 cmp/ge r2,r9
00000000: 3E A3 cmp/ge r10,r14
00000000: 32 B3 cmp/ge r11,r2
00000000: 3E 93 cmp/ge r9,r14
FFFFFFFC: 38 B3 cmp/ge r11,r8
FFFFFFFC: 36 D3 cmp/ge r13,r6
FFFFFFFC: 30 A3 cmp/ge r10,r0
FFFFFFFC: 3C D3 cmp/ge r13,r12
00400462: 38 43 cmp/ge r4,r8
00400462: 37 63 cmp/ge r6,r7
00400462: 35 53 cmp/ge r5,r5
00400462: 32 F3 cmp/ge r15,r2
00001234: 3B 73 cmp/ge r7,r11
00001234: 39 63 cmp/ge r6,r9
00001234: 3F 83 cmp/ge r8,r15
00001234: 37 A3 cmp/ge r10,r7
00008000: 3F 63 cmp/ge r6,r15
00008000: 3E A3 cmp/ge r10,r14
00008000: 3C 83 cmp/ge r8,r12
00008000: 3C 73 cmp/ge r7,r12
# 0011nnnnmmmm0110 "cmp/hi Rm,Rn"
00000000: 30 C6 cmp/hi r12,r0
00000000: 31 16 cmp/hi r1,r1
00000000: 3C B6 cmp/hi r11,r12
00000000: 3A B6 cmp/hi r11,r10
FFFFFFFC: 32 76 cmp/hi r7,r2
FFFFFFFC: 32 E6 cmp/hi r14,r2
FFFFFFFC: 3B 46 cmp/hi r4,r11
FFFFFFFC: 3A 36 cmp/hi r3,r10
00400462: 3A B6 cmp/hi r11,r10
00400462: 35 96 cmp/hi r9,r5
00400462: 35 66 cmp/hi r6,r5
00400462: 3A 96 cmp/hi r9,r10
00001234: 31 D6 cmp/hi r13,r1
00001234: 31 76 cmp/hi r7,r1
00001234: 35 26 cmp/hi r2,r5
00001234: 37 D6 cmp/hi r13,r7
00008000: 32 F6 cmp/hi r15,r2
00008000: 3D 86 cmp/hi r8,r13
00008000: 37 86 cmp/hi r8,r7
00008000: 3D C6 cmp/hi r12,r13
# 0011nnnnmmmm0111 "cmp/gt Rm,Rn"
00000000: 32 57 cmp/gt r5,r2
00000000: 3B B7 cmp/gt r11,r11
00000000: 3F 47 cmp/gt r4,r15
00000000: 3A 37 cmp/gt r3,r10
FFFFFFFC: 36 47 cmp/gt r4,r6
FFFFFFFC: 31 97 cmp/gt r9,r1
FFFFFFFC: 33 87 cmp/gt r8,r3
FFFFFFFC: 35 17 cmp/gt r1,r5
00400462: 31 37 cmp/gt r3,r1
00400462: 3E 47 cmp/gt r4,r14
00400462: 3E 87 cmp/gt r8,r14
00400462: 35 D7 cmp/gt r13,r5
00001234: 31 F7 cmp/gt r15,r1
00001234: 3C D7 cmp/gt r13,r12
00001234: 34 47 cmp/gt r4,r4
00001234: 3D C7 cmp/gt r12,r13
00008000: 39 77 cmp/gt r7,r9
00008000: 36 37 cmp/gt r3,r6
00008000: 36 F7 cmp/gt r15,r6
00008000: 3C B7 cmp/gt r11,r12
# 0100nnnn00010101 "cmp/pl Rn"
00000000: 4D 15 cmp/pl r13
00000000: 4A 15 cmp/pl r10
00000000: 47 15 cmp/pl r7
00000000: 4F 15 cmp/pl r15
FFFFFFFC: 4B 15 cmp/pl r11
FFFFFFFC: 4A 15 cmp/pl r10
FFFFFFFC: 48 15 cmp/pl r8
FFFFFFFC: 44 15 cmp/pl r4
00400462: 44 15 cmp/pl r4
00400462: 49 15 cmp/pl r9
00400462: 46 15 cmp/pl r6
00400462: 4D 15 cmp/pl r13
00001234: 4B 15 cmp/pl r11
00001234: 44 15 cmp/pl r4
00001234: 42 15 cmp/pl r2
00001234: 4E 15 cmp/pl r14
00008000: 45 15 cmp/pl r5
00008000: 47 15 cmp/pl r7
00008000: 42 15 cmp/pl r2
00008000: 4C 15 cmp/pl r12
# 0100nnnn00010001 "cmp/pz Rn"
00000000: 47 11 cmp/pz r7
00000000: 49 11 cmp/pz r9
00000000: 40 11 cmp/pz r0
00000000: 44 11 cmp/pz r4
FFFFFFFC: 47 11 cmp/pz r7
FFFFFFFC: 48 11 cmp/pz r8
FFFFFFFC: 40 11 cmp/pz r0
FFFFFFFC: 4E 11 cmp/pz r14
00400462: 44 11 cmp/pz r4
00400462: 4E 11 cmp/pz r14
00400462: 43 11 cmp/pz r3
00400462: 46 11 cmp/pz r6
00001234: 45 11 cmp/pz r5
00001234: 4C 11 cmp/pz r12
00001234: 4A 11 cmp/pz r10
00001234: 40 11 cmp/pz r0
00008000: 4B 11 cmp/pz r11
00008000: 4D 11 cmp/pz r13
00008000: 4F 11 cmp/pz r15
00008000: 4A 11 cmp/pz r10
# 0010nnnnmmmm1100 "cmp/str Rm,Rn"
00000000: 2E 7C cmp/str r7,r14
00000000: 22 AC cmp/str r10,r2
00000000: 26 2C cmp/str r2,r6
00000000: 2B 8C cmp/str r8,r11
FFFFFFFC: 2C 5C cmp/str r5,r12
FFFFFFFC: 2D 8C cmp/str r8,r13
FFFFFFFC: 2C 8C cmp/str r8,r12
FFFFFFFC: 21 AC cmp/str r10,r1
00400462: 2A EC cmp/str r14,r10
00400462: 26 2C cmp/str r2,r6
00400462: 2E 0C cmp/str r0,r14
00400462: 29 1C cmp/str r1,r9
00001234: 22 FC cmp/str r15,r2
00001234: 23 2C cmp/str r2,r3
00001234: 2D FC cmp/str r15,r13
00001234: 26 2C cmp/str r2,r6
00008000: 23 4C cmp/str r4,r3
00008000: 23 BC cmp/str r11,r3
00008000: 26 EC cmp/str r14,r6
00008000: 2B 1C cmp/str r1,r11
# 0010nnnnmmmm0111 "div0s Rm,Rn"
00000000: 24 07 div0s r0,r4
00000000: 21 37 div0s r3,r1
00000000: 2F 37 div0s r3,r15
00000000: 26 37 div0s r3,r6
FFFFFFFC: 23 E7 div0s r14,r3
FFFFFFFC: 20 D7 div0s r13,r0
FFFFFFFC: 28 D7 div0s r13,r8
FFFFFFFC: 2F 97 div0s r9,r15
00400462: 29 C7 div0s r12,r9
00400462: 22 57 div0s r5,r2
00400462: 29 67 div0s r6,r9
00400462: 26 37 div0s r3,r6
00001234: 23 A7 div0s r10,r3
00001234: 2F 27 div0s r2,r15
00001234: 22 17 div0s r1,r2
00001234: 23 97 div0s r9,r3
00008000: 2B 07 div0s r0,r11
00008000: 27 57 div0s r5,r7
00008000: 2A 87 div0s r8,r10
00008000: 24 D7 div0s r13,r4
# 0000000000011001 "div0u"
00000000: 00 19 div0u
FFFFFFFC: 00 19 div0u
00400462: 00 19 div0u
00001234: 00 19 div0u
00008000: 00 19 div0u
# 0011nnnnmmmm0100 "div1 Rm,Rn"
00000000: 35 F4 div1 r15,r5
00000000: 38 24 div1 r2,r8
00000000: 3A 44 div1 r4,r10
00000000: 36 E4 div1 r14,r6
FFFFFFFC: 38 34 div1 r3,r8
FFFFFFFC: 31 64 div1 r6,r1
FFFFFFFC: 30 B4 div1 r11,r0
FFFFFFFC: 3E C4 div1 r12,r14
00400462: 3B 64 div1 r6,r11
00400462: 37 64 div1 r6,r7
00400462: 39 94 div1 r9,r9
00400462: 35 E4 div1 r14,r5
00001234: 3B 14 div1 r1,r11
00001234: 30 84 div1 r8,r0
00001234: 3C 14 div1 r1,r12
00001234: 38 F4 div1 r15,r8
00008000: 34 D4 div1 r13,r4
00008000: 38 D4 div1 r13,r8
00008000: 3A 04 div1 r0,r10
00008000: 30 34 div1 r3,r0
# 0011nnnnmmmm1101 "dmuls.l Rm,Rn"
00000000: 3A 5D dmuls.l r5,r10
00000000: 37 3D dmuls.l r3,r7
00000000: 3B 0D dmuls.l r0,r11
00000000: 3A FD dmuls.l r15,r10
FFFFFFFC: 3E 8D dmuls.l r8,r14
FFFFFFFC: 35 5D dmuls.l r5,r5
FFFFFFFC: 32 7D dmuls.l r7,r2
FFFFFFFC: 39 5D dmuls.l r5,r9
00400462: 31 ED dmuls.l r14,r1
00400462: 38 BD dmuls.l r11,r8
00400462: 3E 7D dmuls.l r7,r14
00400462: 3B AD dmuls.l r10,r11
00001234: 3F DD dmuls.l r13,r15
00001234: 3B CD dmuls.l r12,r11
00001234: 39 5D dmuls.l r5,r9
00001234: 3D ED dmuls.l r14,r13
00008000: 36 0D dmuls.l r0,r6
00008000: 36 8D dmuls.l r8,r6
00008000: 36 3D dmuls.l r3,r6
00008000: 30 0D dmuls.l r0,r0
# 0011nnnnmmmm0101 "dmulu.l Rm,Rn"
00000000: 3B 35 dmulu.l r3,r11
00000000: 34 45 dmulu.l r4,r4
00000000: 31 25 dmulu.l r2,r1
00000000: 37 35 dmulu.l r3,r7
FFFFFFFC: 3C C5 dmulu.l r12,r12
FFFFFFFC: 30 E5 dmulu.l r14,r0
FFFFFFFC: 3F C5 dmulu.l r12,r15
FFFFFFFC: 3B 75 dmulu.l r7,r11
00400462: 3D D5 dmulu.l r13,r13
00400462: 34 A5 dmulu.l r10,r4
00400462: 32 B5 dmulu.l r11,r2
00400462: 39 C5 dmulu.l r12,r9
00001234: 32 85 dmulu.l r8,r2
00001234: 39 05 dmulu.l r0,r9
00001234: 37 25 dmulu.l r2,r7
00001234: 37 B5 dmulu.l r11,r7
00008000: 30 A5 dmulu.l r10,r0
00008000: 39 65 dmulu.l r6,r9
00008000: 30 25 dmulu.l r2,r0
00008000: 35 C5 dmulu.l r12,r5
# 0100nnnn00010000 "dt Rn"
00000000: 4D 10 dt r13
00000000: 46 10 dt r6
00000000: 4E 10 dt r14
00000000: 44 10 dt r4
FFFFFFFC: 4F 10 dt r15
FFFFFFFC: 44 10 dt r4
FFFFFFFC: 4A 10 dt r10
FFFFFFFC: 4C 10 dt r12
00400462: 46 10 dt r6
00400462: 45 10 dt r5
00400462: 4E 10 dt r14
00400462: 4A 10 dt r10
00001234: 43 10 dt r3
00001234: 48 10 dt r8
00001234: 46 10 dt r6
00001234: 4D 10 dt r13
00008000: 4A 10 dt r10
00008000: 42 10 dt r2
00008000: 46 10 dt r6
00008000: 4E 10 dt r14
# 0110nnnnmmmm1110 "exts.b Rm,Rn"
00000000: 6A BE exts.b r11,r10
00000000: 65 6E exts.b r6,r5
00000000: 6A 5E exts.b r5,r10
00000000: 63 CE exts.b r12,r3
FFFFFFFC: 67 5E exts.b r5,r7
FFFFFFFC: 68 EE exts.b r14,r8
FFFFFFFC: 6C 7E exts.b r7,r12
FFFFFFFC: 62 0E exts.b r0,r2
00400462: 6C 9E exts.b r9,r12
00400462: 6A AE exts.b r10,r10
00400462: 69 EE exts.b r14,r9
00400462: 6C 5E exts.b r5,r12
00001234: 66 4E exts.b r4,r6
00001234: 6D AE exts.b r10,r13
00001234: 6F 6E exts.b r6,r15
00001234: 60 AE exts.b r10,r0
00008000: 6F BE exts.b r11,r15
00008000: 60 2E exts.b r2,r0
00008000: 60 3E exts.b r3,r0
00008000: 6F DE exts.b r13,r15
# 0110nnnnmmmm1111 "exts.w Rm,Rn"
00000000: 62 AF exts.w r10,r2
00000000: 6C 7F exts.w r7,r12
00000000: 66 5F exts.w r5,r6
00000000: 6C 9F exts.w r9,r12
FFFFFFFC: 60 DF exts.w r13,r0
FFFFFFFC: 65 FF exts.w r15,r5
FFFFFFFC: 6D 9F exts.w r9,r13
FFFFFFFC: 6E EF exts.w r14,r14
00400462: 6E 8F exts.w r8,r14
00400462: 68 DF exts.w r13,r8
00400462: 68 2F exts.w r2,r8
00400462: 6B 7F exts.w r7,r11
00001234: 6F 3F exts.w r3,r15
00001234: 6B 2F exts.w r2,r11
00001234: 61 7F exts.w r7,r1
00001234: 6A EF exts.w r14,r10
00008000: 66 5F exts.w r5,r6
00008000: 6B 3F exts.w r3,r11
00008000: 69 EF exts.w r14,r9
00008000: 63 4F exts.w r4,r3
# 0110nnnnmmmm1100 "extu.b Rm,Rn"
00000000: 69 7C extu.b r7,r9
00000000: 64 7C extu.b r7,r4
00000000: 67 5C extu.b r5,r7
00000000: 64 CC extu.b r12,r4
FFFFFFFC: 6F 2C extu.b r2,r15
FFFFFFFC: 62 1C extu.b r1,r2
FFFFFFFC: 61 CC extu.b r12,r1
FFFFFFFC: 60 7C extu.b r7,r0
00400462: 69 BC extu.b r11,r9
00400462: 65 DC extu.b r13,r5
00400462: 61 8C extu.b r8,r1
00400462: 6C BC extu.b r11,r12
00001234: 6E EC extu.b r14,r14
00001234: 6B DC extu.b r13,r11
00001234: 6A 4C extu.b r4,r10
00001234: 6A AC extu.b r10,r10
00008000: 63 4C extu.b r4,r3
00008000: 66 CC extu.b r12,r6
00008000: 68 BC extu.b r11,r8
00008000: 69 CC extu.b r12,r9
# 0110nnnnmmmm1101 "extu.w Rm,Rn"
00000000: 69 BD extu.w r11,r9
00000000: 66 DD extu.w r13,r6
00000000: 67 CD extu.w r12,r7
00000000: 68 AD extu.w r10,r8
FFFFFFFC: 6E 8D extu.w r8,r14
FFFFFFFC: 69 0D extu.w r0,r9
FFFFFFFC: 6B FD extu.w r15,r11
FFFFFFFC: 64 7D extu.w r7,r4
00400462: 65 DD extu.w r13,r5
00400462: 6D 7D extu.w r7,r13
00400462: 68 8D extu.w r8,r8
00400462: 6A 9D extu.w r9,r10
00001234: 64 1D extu.w r1,r4
00001234: 67 8D extu.w r8,r7
00001234: 63 8D extu.w r8,r3
00001234: 67 2D extu.w r2,r7
00008000: 6D BD extu.w r11,r13
00008000: 64 9D extu.w r9,r4
00008000: 67 6D extu.w r6,r7
00008000: 67 8D extu.w r8,r7
# 0000nnnnmmmm1111 "mac.l @Rm+,@Rn+"
00000000: 0F 2F mac.l @r2+,@r15+
00000000: 0E 1F mac.l @r1+,@r14+
00000000: 06 FF mac.l @r15+,@r6+
00000000: 02 BF mac.l @r11+,@r2+
FFFFFFFC: 01 DF mac.l @r13+,@r1+
FFFFFFFC: 08 BF mac.l @r11+,@r8+
FFFFFFFC: 0F 8F mac.l @r8+,@r15+
FFFFFFFC: 0B 5F mac.l @r5+,@r11+
00400462: 0B AF mac.l @r10+,@r11+
00400462: 02 9F mac.l @r9+,@r2+
00400462: 03 DF mac.l @r13+,@r3+
00400462: 0E 4F mac.l @r4+,@r14+
00001234: 0B BF mac.l @r11+,@r11+
00001234: 0A BF mac.l @r11+,@r10+
00001234: 05 EF mac.l @r14+,@r5+
00001234: 02 FF mac.l @r15+,@r2+
00008000: 03 BF mac.l @r11+,@r3+
00008000: 02 9F mac.l @r9+,@r2+
00008000: 0D FF mac.l @r15+,@r13+
00008000: 08 BF mac.l @r11+,@r8+
# 0100nnnnmmmm1111 "mac.w @Rm+,@Rn+"
00000000: 46 9F mac.w @r9+,@r6+
00000000: 43 2F mac.w @r2+,@r3+
00000000: 49 0F mac.w @r0+,@r9+
00000000: 48 2F mac.w @r2+,@r8+
FFFFFFFC: 49 CF mac.w @r12+,@r9+
FFFFFFFC: 41 FF mac.w @r15+,@r1+
FFFFFFFC: 49 9F mac.w @r9+,@r9+
FFFFFFFC: 44 FF mac.w @r15+,@r4+
00400462: 40 6F mac.w @r6+,@r0+
00400462: 42 5F mac.w @r5+,@r2+
00400462: 4D DF mac.w @r13+,@r13+
00400462: 42 6F mac.w @r6+,@r2+
00001234: 4D BF mac.w @r11+,@r13+
00001234: 4A 8F mac.w @r8+,@r10+
00001234: 47 EF mac.w @r14+,@r7+
00001234: 42 1F mac.w @r1+,@r2+
00008000: 45 6F mac.w @r6+,@r5+
00008000: 42 6F mac.w @r6+,@r2+
00008000: 48 EF mac.w @r14+,@r8+
00008000: 48 4F mac.w @r4+,@r8+
# 0000nnnnmmmm0111 "mul.l Rm,Rn"
00000000: 09 17 mul.l r1,r9
00000000: 0A F7 mul.l r15,r10
00000000: 00 B7 mul.l r11,r0
00000000: 00 87 mul.l r8,r0
FFFFFFFC: 0F A7 mul.l r10,r15
FFFFFFFC: 0F E7 mul.l r14,r15
FFFFFFFC: 0F 07 mul.l r0,r15
FFFFFFFC: 08 F7 mul.l r15,r8
00400462: 0F 57 mul.l r5,r15
00400462: 0C 47 mul.l r4,r12
00400462: 0C 77 mul.l r7,r12
00400462: 0B C7 mul.l r12,r11
00001234: 0F 67 mul.l r6,r15
00001234: 06 57 mul.l r5,r6
00001234: 0C 87 mul.l r8,r12
00001234: 0A 57 mul.l r5,r10
00008000: 01 97 mul.l r9,r1
00008000: 0A 17 mul.l r1,r10
00008000: 09 87 mul.l r8,r9
00008000: 06 77 mul.l r7,r6
# 0010nnnnmmmm1111 "muls.w Rm,Rn"
00000000: 25 9F muls.w r9,r5
00000000: 2A 6F muls.w r6,r10
00000000: 21 6F muls.w r6,r1
00000000: 2F 4F muls.w r4,r15
FFFFFFFC: 27 FF muls.w r15,r7
FFFFFFFC: 2D CF muls.w r12,r13
FFFFFFFC: 26 0F muls.w r0,r6
FFFFFFFC: 29 FF muls.w r15,r9
00400462: 25 7F muls.w r7,r5
00400462: 27 EF muls.w r14,r7
00400462: 2D 7F muls.w r7,r13
00400462: 23 AF muls.w r10,r3
00001234: 2A 3F muls.w r3,r10
00001234: 2C DF muls.w r13,r12
00001234: 2B AF muls.w r10,r11
00001234: 20 8F muls.w r8,r0
00008000: 25 3F muls.w r3,r5
00008000: 25 DF muls.w r13,r5
00008000: 2D DF muls.w r13,r13
00008000: 28 0F muls.w r0,r8
# 0010nnnnmmmm1110 "mulu.w Rm,Rn"
00000000: 2F 2E mulu.w r2,r15
00000000: 2C 6E mulu.w r6,r12
00000000: 2E 2E mulu.w r2,r14
00000000: 29 4E mulu.w r4,r9
FFFFFFFC: 2C 0E mulu.w r0,r12
FFFFFFFC: 2B 1E mulu.w r1,r11
FFFFFFFC: 23 6E mulu.w r6,r3
FFFFFFFC: 24 CE mulu.w r12,r4
00400462: 2F 9E mulu.w r9,r15
00400462: 2B 1E mulu.w r1,r11
00400462: 25 DE mulu.w r13,r5
00400462: 26 9E mulu.w r9,r6
00001234: 2A 2E mulu.w r2,r10
00001234: 29 5E mulu.w r5,r9
00001234: 2A 8E mulu.w r8,r10
00001234: 24 9E mulu.w r9,r4
00008000: 26 AE mulu.w r10,r6
00008000: 2E CE mulu.w r12,r14
00008000: 24 AE mulu.w r10,r4
00008000: 23 BE mulu.w r11,r3
# 0110nnnnmmmm1011 "neg Rm,Rn"
00000000: 68 1B neg r1,r8
00000000: 62 3B neg r3,r2
00000000: 6B BB neg r11,r11
00000000: 62 1B neg r1,r2
FFFFFFFC: 66 AB neg r10,r6
FFFFFFFC: 6C EB neg r14,r12
FFFFFFFC: 6F 1B neg r1,r15
FFFFFFFC: 67 0B neg r0,r7
00400462: 62 8B neg r8,r2
00400462: 6D 2B neg r2,r13
00400462: 65 6B neg r6,r5
00400462: 6A 7B neg r7,r10
00001234: 62 5B neg r5,r2
00001234: 6C 3B neg r3,r12
00001234: 68 CB neg r12,r8
00001234: 6F 6B neg r6,r15
00008000: 6A DB neg r13,r10
00008000: 67 0B neg r0,r7
00008000: 6C 2B neg r2,r12
00008000: 6B 5B neg r5,r11
# 0110nnnnmmmm1010 "negc Rm,Rn"
00000000: 68 6A negc r6,r8
00000000: 60 0A negc r0,r0
00000000: 68 3A negc r3,r8
00000000: 60 3A negc r3,r0
FFFFFFFC: 62 AA negc r10,r2
FFFFFFFC: 68 FA negc r15,r8
FFFFFFFC: 64 CA negc r12,r4
FFFFFFFC: 63 BA negc r11,r3
00400462: 67 9A negc r9,r7
00400462: 63 3A negc r3,r3
00400462: 6F 3A negc r3,r15
00400462: 65 7A negc r7,r5
00001234: 63 DA negc r13,r3
00001234: 6E CA negc r12,r14
00001234: 69 7A negc r7,r9
00001234: 6C 6A negc r6,r12
00008000: 63 6A negc r6,r3
00008000: 6B 9A negc r9,r11
00008000: 62 2A negc r2,r2
00008000: 6F 3A negc r3,r15
# 0011nnnnmmmm1000 "sub Rm,Rn"
00000000: 36 08 sub r0,r6
00000000: 3F E8 sub r14,r15
00000000: 35 B8 sub r11,r5
00000000: 31 58 sub r5,r1
FFFFFFFC: 34 18 sub r1,r4
FFFFFFFC: 35 F8 sub r15,r5
FFFFFFFC: 3B F8 sub r15,r11
FFFFFFFC: 31 68 sub r6,r1
00400462: 3E 18 sub r1,r14
00400462: 3E F8 sub r15,r14
00400462: 3A 98 sub r9,r10
00400462: 3C D8 sub r13,r12
00001234: 37 98 sub r9,r7
00001234: 36 F8 sub r15,r6
00001234: 31 18 sub r1,r1
00001234: 3E 78 sub r7,r14
00008000: 36 48 sub r4,r6
00008000: 32 D8 sub r13,r2
00008000: 31 B8 sub r11,r1
00008000: 35 18 sub r1,r5
# 0011nnnnmmmm1010 "subc Rm,Rn"
00000000: 35 DA subc r13,r5
00000000: 35 6A subc r6,r5
00000000: 3D 9A subc r9,r13
00000000: 38 4A subc r4,r8
FFFFFFFC: 3D 8A subc r8,r13
FFFFFFFC: 3A 4A subc r4,r10
FFFFFFFC: 31 DA subc r13,r1
FFFFFFFC: 3A 3A subc r3,r10
00400462: 32 BA subc r11,r2
00400462: 33 2A subc r2,r3
00400462: 3F 0A subc r0,r15
00400462: 3F BA subc r11,r15
00001234: 3B DA subc r13,r11
00001234: 30 1A subc r1,r0
00001234: 33 0A subc r0,r3
00001234: 31 CA subc r12,r1
00008000: 34 3A subc r3,r4
00008000: 31 1A subc r1,r1
00008000: 34 DA subc r13,r4
00008000: 30 2A subc r2,r0
# 0011nnnnmmmm1011 "subv Rm,Rn"
00000000: 3B 5B subv r5,r11
00000000: 3D DB subv r13,r13
00000000: 3B 7B subv r7,r11
00000000: 3E 1B subv r1,r14
FFFFFFFC: 32 FB subv r15,r2
FFFFFFFC: 36 0B subv r0,r6
FFFFFFFC: 31 EB subv r14,r1
FFFFFFFC: 34 DB subv r13,r4
00400462: 36 CB subv r12,r6
00400462: 3F AB subv r10,r15
00400462: 35 0B subv r0,r5
00400462: 32 CB subv r12,r2
00001234: 39 2B subv r2,r9
00001234: 35 0B subv r0,r5
00001234: 32 2B subv r2,r2
00001234: 3E BB subv r11,r14
00008000: 30 7B subv r7,r0
00008000: 3B BB subv r11,r11
00008000: 31 2B subv r2,r1
00008000: 3E 5B subv r5,r14
# 0010nnnnmmmm1001 "and Rm,Rn"
00000000: 21 39 and r3,r1
00000000: 29 79 and r7,r9
00000000: 2C 29 and r2,r12
00000000: 2F B9 and r11,r15
FFFFFFFC: 27 F9 and r15,r7
FFFFFFFC: 29 59 and r5,r9
FFFFFFFC: 21 89 and r8,r1
FFFFFFFC: 2E 39 and r3,r14
00400462: 29 B9 and r11,r9
00400462: 21 A9 and r10,r1
00400462: 2B D9 and r13,r11
00400462: 20 29 and r2,r0
00001234: 21 39 and r3,r1
00001234: 21 69 and r6,r1
00001234: 21 A9 and r10,r1
00001234: 2A 49 and r4,r10
00008000: 2E 69 and r6,r14
00008000: 21 79 and r7,r1
00008000: 23 39 and r3,r3
00008000: 2C C9 and r12,r12
# 11001001iiiiiiii "and #imm,R0"
00000000: C9 C6 and #-58,r0
00000000: C9 93 and #-109,r0
00000000: C9 3F and #63,r0
00000000: C9 23 and #35,r0
FFFFFFFC: C9 96 and #-106,r0
FFFFFFFC: C9 8B and #-117,r0
FFFFFFFC: C9 7D and #125,r0
FFFFFFFC: C9 57 and #87,r0
00400462: C9 5D and #93,r0
00400462: C9 ED and #-19,r0
00400462: C9 0C and #12,r0
00400462: C9 BB and #-69,r0
00001234: C9 0A and #10,r0
00001234: C9 5F and #95,r0
00001234: C9 B0 and #-80,r0
00001234: C9 1F and #31,r0
00008000: C9 77 and #119,r0
00008000: C9 19 and #25,r0
00008000: C9 D0 and #-48,r0
00008000: C9 53 and #83,r0
# 11001101iiiiiiii "and.b #imm,@(R0,GBR)"
00000000: CD 5F and.b #95,@(r0,gbr)
00000000: CD 33 and.b #51,@(r0,gbr)
00000000: CD 1A and.b #26,@(r0,gbr)
00000000: CD 73 and.b #115,@(r0,gbr)
FFFFFFFC: CD 6A and.b #106,@(r0,gbr)
FFFFFFFC: CD 50 and.b #80,@(r0,gbr)
FFFFFFFC: CD 0B and.b #11,@(r0,gbr)
FFFFFFFC: CD CE and.b #-50,@(r0,gbr)
00400462: CD 12 and.b #18,@(r0,gbr)
00400462: CD BB and.b #-69,@(r0,gbr)
00400462: CD E7 and.b #-25,@(r0,gbr)
00400462: CD CB and.b #-53,@(r0,gbr)
00001234: CD 0A and.b #10,@(r0,gbr)
00001234: CD 83 and.b #-125,@(r0,gbr)
00001234: CD 35 and.b #53,@(r0,gbr)
00001234: CD C0 and.b #-64,@(r0,gbr)
00008000: CD 66 and.b #102,@(r0,gbr)
00008000: CD 8E and.b #-114,@(r0,gbr)
00008000: CD F4 and.b #-12,@(r0,gbr)
00008000: CD 65 and.b #101,@(r0,gbr)
# 0110nnnnmmmm0111 "not Rm,Rn"
00000000: 6C 67 not r6,r12
00000000: 63 27 not r2,r3
00000000: 67 77 not r7,r7
00000000: 6D A7 not r10,r13
FFFFFFFC: 6D F7 not r15,r13
FFFFFFFC: 64 87 not r8,r4
FFFFFFFC: 66 37 not r3,r6
FFFFFFFC: 6A C7 not r12,r10
00400462: 6C 57 not r5,r12
00400462: 65 D7 not r13,r5
00400462: 62 37 not r3,r2
00400462: 65 C7 not r12,r5
00001234: 69 E7 not r14,r9
00001234: 69 67 not r6,r9
00001234: 62 07 not r0,r2
00001234: 6E 67 not r6,r14
00008000: 64 47 not r4,r4
00008000: 6D 07 not r0,r13
00008000: 65 A7 not r10,r5
00008000: 60 A7 not r10,r0
# 0010nnnnmmmm1011 "or Rm,Rn"
00000000: 2E 2B or r2,r14
00000000: 29 1B or r1,r9
00000000: 2A 2B or r2,r10
00000000: 2D 4B or r4,r13
FFFFFFFC: 28 5B or r5,r8
FFFFFFFC: 21 6B or r6,r1
FFFFFFFC: 29 9B or r9,r9
FFFFFFFC: 23 1B or r1,r3
00400462: 2B EB or r14,r11
00400462: 28 5B or r5,r8
00400462: 2E 9B or r9,r14
00400462: 2A 7B or r7,r10
00001234: 27 0B or r0,r7
00001234: 2A 0B or r0,r10
00001234: 2D 5B or r5,r13
00001234: 27 FB or r15,r7
00008000: 2D 9B or r9,r13
00008000: 2D EB or r14,r13
00008000: 21 6B or r6,r1
00008000: 24 CB or r12,r4
# 11001011iiiiiiii "or #imm,R0"
00000000: CB F0 or #-16,r0
00000000: CB 07 or #7,r0
00000000: CB E4 or #-28,r0
00000000: CB 48 or #72,r0
FFFFFFFC: CB 75 or #117,r0
FFFFFFFC: CB C4 or #-60,r0
FFFFFFFC: CB 7F or #127,r0
FFFFFFFC: CB 14 or #20,r0
00400462: CB 17 or #23,r0
00400462: CB 06 or #6,r0
00400462: CB A3 or #-93,r0
00400462: CB 3B or #59,r0
00001234: CB 1D or #29,r0
00001234: CB FA or #-6,r0
00001234: CB 58 or #88,r0
00001234: CB CE or #-50,r0
00008000: CB 4C or #76,r0
00008000: CB 60 or #96,r0
00008000: CB FC or #-4,r0
00008000: CB 43 or #67,r0
# 11001111iiiiiiii "or.b #imm,@(R0,GBR)"
00000000: CF 8F or.b #-113,@(r0,gbr)
00000000: CF 0E or.b #14,@(r0,gbr)
00000000: CF 44 or.b #68,@(r0,gbr)
00000000: CF E3 or.b #-29,@(r0,gbr)
FFFFFFFC: CF A4 or.b #-92,@(r0,gbr)
FFFFFFFC: CF E2 or.b #-30,@(r0,gbr)
FFFFFFFC: CF A1 or.b #-95,@(r0,gbr)
FFFFFFFC: CF 3D or.b #61,@(r0,gbr)
00400462: CF D8 or.b #-40,@(r0,gbr)
00400462: CF 08 or.b #8,@(r0,gbr)
00400462: CF F2 or.b #-14,@(r0,gbr)
00400462: CF A7 or.b #-89,@(r0,gbr)
00001234: CF 11 or.b #17,@(r0,gbr)
00001234: CF 6A or.b #106,@(r0,gbr)
00001234: CF 79 or.b #121,@(r0,gbr)
00001234: CF 84 or.b #-124,@(r0,gbr)
00008000: CF C8 or.b #-56,@(r0,gbr)
00008000: CF C2 or.b #-62,@(r0,gbr)
00008000: CF 11 or.b #17,@(r0,gbr)
00008000: CF DB or.b #-37,@(r0,gbr)
# 0100nnnn00011011 "tas.b @Rn"
00000000: 46 1B tas.b @r6
00000000: 44 1B tas.b @r4
00000000: 4F 1B tas.b @r15
00000000: 47 1B tas.b @r7
FFFFFFFC: 47 1B tas.b @r7
FFFFFFFC: 45 1B tas.b @r5
FFFFFFFC: 43 1B tas.b @r3
FFFFFFFC: 4C 1B tas.b @r12
00400462: 4F 1B tas.b @r15
00400462: 4C 1B tas.b @r12
00400462: 4D 1B tas.b @r13
00400462: 47 1B tas.b @r7
00001234: 4D 1B tas.b @r13
00001234: 4E 1B tas.b @r14
00001234: 46 1B tas.b @r6
00001234: 4B 1B tas.b @r11
00008000: 4C 1B tas.b @r12
00008000: 4E 1B tas.b @r14
00008000: 4A 1B tas.b @r10
00008000: 47 1B tas.b @r7
# 0010nnnnmmmm1000 "tst Rm,Rn"
00000000: 2F 68 tst r6,r15
00000000: 2C 78 tst r7,r12
00000000: 2C C8 tst r12,r12
00000000: 22 08 tst r0,r2
FFFFFFFC: 20 78 tst r7,r0
FFFFFFFC: 28 C8 tst r12,r8
FFFFFFFC: 2C D8 tst r13,r12
FFFFFFFC: 2D F8 tst r15,r13
00400462: 2E 08 tst r0,r14
00400462: 2E E8 tst r14,r14
00400462: 28 A8 tst r10,r8
00400462: 28 18 tst r1,r8
00001234: 21 98 tst r9,r1
00001234: 27 38 tst r3,r7
00001234: 23 D8 tst r13,r3
00001234: 22 38 tst r3,r2
00008000: 2B 38 tst r3,r11
00008000: 25 88 tst r8,r5
00008000: 22 88 tst r8,r2
00008000: 2F 48 tst r4,r15
# 11001000iiiiiiii "tst #imm,R0"
00000000: C8 48 tst #72,r0
00000000: C8 73 tst #115,r0
00000000: C8 38 tst #56,r0
00000000: C8 C5 tst #-59,r0
FFFFFFFC: C8 FF tst #-1,r0
FFFFFFFC: C8 A2 tst #-94,r0
FFFFFFFC: C8 68 tst #104,r0
FFFFFFFC: C8 0B tst #11,r0
00400462: C8 C0 tst #-64,r0
00400462: C8 48 tst #72,r0
00400462: C8 5F tst #95,r0
00400462: C8 58 tst #88,r0
00001234: C8 75 tst #117,r0
00001234: C8 8A tst #-118,r0
00001234: C8 13 tst #19,r0
00001234: C8 B8 tst #-72,r0
00008000: C8 B3 tst #-77,r0
00008000: C8 02 tst #2,r0
00008000: C8 A6 tst #-90,r0
00008000: C8 EB tst #-21,r0
# 11001100iiiiiiii "tst.b #imm,@(R0,GBR)"
00000000: CC 4F tst.b #79,@(r0,gbr)
00000000: CC 66 tst.b #102,@(r0,gbr)
00000000: CC AE tst.b #-82,@(r0,gbr)
00000000: CC 49 tst.b #73,@(r0,gbr)
FFFFFFFC: CC CB tst.b #-53,@(r0,gbr)
FFFFFFFC: CC A4 tst.b #-92,@(r0,gbr)
FFFFFFFC: CC 9C tst.b #-100,@(r0,gbr)
FFFFFFFC: CC B9 tst.b #-71,@(r0,gbr)
00400462: CC 5D tst.b #93,@(r0,gbr)
00400462: CC 1C tst.b #28,@(r0,gbr)
00400462: CC 13 tst.b #19,@(r0,gbr)
00400462: CC 32 tst.b #50,@(r0,gbr)
00001234: CC 81 tst.b #-127,@(r0,gbr)
00001234: CC F0 tst.b #-16,@(r0,gbr)
00001234: CC DA tst.b #-38,@(r0,gbr)
00001234: CC CF tst.b #-49,@(r0,gbr)
00008000: CC E3 tst.b #-29,@(r0,gbr)
00008000: CC 55 tst.b #85,@(r0,gbr)
00008000: CC 47 tst.b #71,@(r0,gbr)
00008000: CC 78 tst.b #120,@(r0,gbr)
# 0010nnnnmmmm1010 "xor Rm,Rn"
00000000: 2F EA xor r14,r15
00000000: 2F 3A xor r3,r15
00000000: 25 4A xor r4,r5
00000000: 2E 3A xor r3,r14
FFFFFFFC: 28 2A xor r2,r8
FFFFFFFC: 2A 8A xor r8,r10
FFFFFFFC: 2E 0A xor r0,r14
FFFFFFFC: 2E 9A xor r9,r14
00400462: 25 2A xor r2,r5
00400462: 2D 6A xor r6,r13
00400462: 2D 7A xor r7,r13
00400462: 22 CA xor r12,r2
00001234: 2F DA xor r13,r15
00001234: 2B CA xor r12,r11
00001234: 29 AA xor r10,r9
00001234: 20 CA xor r12,r0
00008000: 2B 8A xor r8,r11
00008000: 2D 4A xor r4,r13
00008000: 23 EA xor r14,r3
00008000: 2F DA xor r13,r15
# 11001010iiiiiiii "xor #imm,R0"
00000000: CA 5B xor #91,r0
00000000: CA E3 xor #-29,r0
00000000: CA 7C xor #124,r0
00000000: CA 54 xor #84,r0
FFFFFFFC: CA 25 xor #37,r0
FFFFFFFC: CA 4A xor #74,r0
FFFFFFFC: CA 20 xor #32,r0
FFFFFFFC: CA 94 xor #-108,r0
00400462: CA A8 xor #-88,r0
00400462: CA 69 xor #105,r0
00400462: CA 92 xor #-110,r0
00400462: CA 16 xor #22,r0
00001234: CA C8 xor #-56,r0
00001234: CA C9 xor #-55,r0
00001234: CA 06 xor #6,r0
00001234: CA 04 xor #4,r0
00008000: CA 98 xor #-104,r0
00008000: CA D7 xor #-41,r0
00008000: CA 81 xor #-127,r0
00008000: CA B0 xor #-80,r0
# 11001110iiiiiiii "xor.b #imm,@(R0,GBR)"
00000000: CE C4 xor.b #-60,@(r0,gbr)
00000000: CE EB xor.b #-21,@(r0,gbr)
00000000: CE 36 xor.b #54,@(r0,gbr)
00000000: CE 62 xor.b #98,@(r0,gbr)
FFFFFFFC: CE 6C xor.b #108,@(r0,gbr)
FFFFFFFC: CE 2D xor.b #45,@(r0,gbr)
FFFFFFFC: CE 4D xor.b #77,@(r0,gbr)
FFFFFFFC: CE 3E xor.b #62,@(r0,gbr)
00400462: CE 65 xor.b #101,@(r0,gbr)
00400462: CE 1D xor.b #29,@(r0,gbr)
00400462: CE 51 xor.b #81,@(r0,gbr)
00400462: CE 44 xor.b #68,@(r0,gbr)
00001234: CE 92 xor.b #-110,@(r0,gbr)
00001234: CE AE xor.b #-82,@(r0,gbr)
00001234: CE 28 xor.b #40,@(r0,gbr)
00001234: CE 84 xor.b #-124,@(r0,gbr)
00008000: CE 0A xor.b #10,@(r0,gbr)
00008000: CE 78 xor.b #120,@(r0,gbr)
00008000: CE 21 xor.b #33,@(r0,gbr)
00008000: CE 97 xor.b #-105,@(r0,gbr)
# 0100nnnn00100100 "rotcl Rn"
00000000: 41 24 rotcl r1
00000000: 46 24 rotcl r6
00000000: 44 24 rotcl r4
00000000: 43 24 rotcl r3
FFFFFFFC: 42 24 rotcl r2
FFFFFFFC: 46 24 rotcl r6
FFFFFFFC: 4B 24 rotcl r11
FFFFFFFC: 48 24 rotcl r8
00400462: 4E 24 rotcl r14
00400462: 42 24 rotcl r2
00400462: 43 24 rotcl r3
00400462: 4C 24 rotcl r12
00001234: 49 24 rotcl r9
00001234: 41 24 rotcl r1
00001234: 47 24 rotcl r7
00001234: 45 24 rotcl r5
00008000: 41 24 rotcl r1
00008000: 42 24 rotcl r2
00008000: 4B 24 rotcl r11
00008000: 45 24 rotcl r5
# 0100nnnn00100101 "rotcr Rn"
00000000: 4F 25 rotcr r15
00000000: 41 25 rotcr r1
00000000: 4C 25 rotcr r12
00000000: 48 25 rotcr r8
FFFFFFFC: 41 25 rotcr r1
FFFFFFFC: 4E 25 rotcr r14
FFFFFFFC: 4F 25 rotcr r15
FFFFFFFC: 4B 25 rotcr r11
00400462: 42 25 rotcr r2
00400462: 45 25 rotcr r5
00400462: 44 25 rotcr r4
00400462: 4C 25 rotcr r12
00001234: 4C 25 rotcr r12
00001234: 4D 25 rotcr r13
00001234: 44 25 rotcr r4
00001234: 41 25 rotcr r1
00008000: 44 25 rotcr r4
00008000: 41 25 rotcr r1
00008000: 4D 25 rotcr r13
00008000: 4E 25 rotcr r14
# 0100nnnn00000100 "rotl Rn"
00000000: 4D 04 rotl r13
00000000: 41 04 rotl r1
00000000: 4A 04 rotl r10
00000000: 4B 04 rotl r11
FFFFFFFC: 44 04 rotl r4
FFFFFFFC: 4C 04 rotl r12
FFFFFFFC: 49 04 rotl r9
FFFFFFFC: 42 04 rotl r2
00400462: 40 04 rotl r0
00400462: 46 04 rotl r6
00400462: 4A 04 rotl r10
00400462: 4F 04 rotl r15
00001234: 46 04 rotl r6
00001234: 4B 04 rotl r11
00001234: 4A 04 rotl r10
00001234: 43 04 rotl r3
00008000: 4F 04 rotl r15
00008000: 47 04 rotl r7
00008000: 45 04 rotl r5
00008000: 48 04 rotl r8
# 0100nnnn00000101 "rotr Rn"
00000000: 46 05 rotr r6
00000000: 45 05 rotr r5
00000000: 48 05 rotr r8
00000000: 4A 05 rotr r10
FFFFFFFC: 46 05 rotr r6
FFFFFFFC: 44 05 rotr r4
FFFFFFFC: 4E 05 rotr r14
FFFFFFFC: 42 05 rotr r2
00400462: 44 05 rotr r4
00400462: 40 05 rotr r0
00400462: 4C 05 rotr r12
00400462: 46 05 rotr r6
00001234: 4A 05 rotr r10
00001234: 40 05 rotr r0
00001234: 41 05 rotr r1
00001234: 4C 05 rotr r12
00008000: 46 05 rotr r6
00008000: 44 05 rotr r4
00008000: 45 05 rotr r5
00008000: 43 05 rotr r3
# 0100nnnnmmmm1100 "shad Rm,Rn"
00000000: 46 BC shad r11,r6
00000000: 44 5C shad r5,r4
00000000: 4A 0C shad r0,r10
00000000: 43 8C shad r8,r3
FFFFFFFC: 43 5C shad r5,r3
FFFFFFFC: 45 3C shad r3,r5
FFFFFFFC: 4D 9C shad r9,r13
FFFFFFFC: 4D 3C shad r3,r13
00400462: 4C AC shad r10,r12
00400462: 4C FC shad r15,r12
00400462: 43 3C shad r3,r3
00400462: 46 BC shad r11,r6
00001234: 48 DC shad r13,r8
00001234: 4B 5C shad r5,r11
00001234: 40 4C shad r4,r0
00001234: 44 3C shad r3,r4
00008000: 4C 7C shad r7,r12
00008000: 4E EC shad r14,r14
00008000: 47 3C shad r3,r7
00008000: 47 1C shad r1,r7
# 0100nnnn00100000 "shal Rn"
00000000: 4E 20 shal r14
00000000: 4D 20 shal r13
00000000: 47 20 shal r7
00000000: 41 20 shal r1
FFFFFFFC: 43 20 shal r3
FFFFFFFC: 45 20 shal r5
FFFFFFFC: 4F 20 shal r15
FFFFFFFC: 46 20 shal r6
00400462: 4D 20 shal r13
00400462: 4C 20 shal r12
00400462: 48 20 shal r8
00400462: 4E 20 shal r14
00001234: 41 20 shal r1
00001234: 4B 20 shal r11
00001234: 40 20 shal r0
00001234: 44 20 shal r4
00008000: 46 20 shal r6
00008000: 45 20 shal r5
00008000: 4A 20 shal r10
00008000: 42 20 shal r2
# 0100nnnn00100001 "shar Rn"
00000000: 4F 21 shar r15
00000000: 4D 21 shar r13
00000000: 40 21 shar r0
00000000: 4B 21 shar r11
FFFFFFFC: 4D 21 shar r13
FFFFFFFC: 44 21 shar r4
FFFFFFFC: 4F 21 shar r15
FFFFFFFC: 46 21 shar r6
00400462: 4E 21 shar r14
00400462: 40 21 shar r0
00400462: 4C 21 shar r12
00400462: 4F 21 shar r15
00001234: 41 21 shar r1
00001234: 4F 21 shar r15
00001234: 47 21 shar r7
00001234: 4D 21 shar r13
00008000: 4C 21 shar r12
00008000: 4E 21 shar r14
00008000: 49 21 shar r9
00008000: 47 21 shar r7
# 0100nnnnmmmm1101 "shld Rm,Rn"
00000000: 47 9D shld r9,r7
00000000: 43 DD shld r13,r3
00000000: 42 9D shld r9,r2
00000000: 45 9D shld r9,r5
FFFFFFFC: 45 DD shld r13,r5
FFFFFFFC: 45 AD shld r10,r5
FFFFFFFC: 4F 0D shld r0,r15
FFFFFFFC: 4D 9D shld r9,r13
00400462: 42 0D shld r0,r2
00400462: 4C ED shld r14,r12
00400462: 46 CD shld r12,r6
00400462: 49 0D shld r0,r9
00001234: 42 8D shld r8,r2
00001234: 46 2D shld r2,r6
00001234: 42 5D shld r5,r2
00001234: 42 9D shld r9,r2
00008000: 43 BD shld r11,r3
00008000: 42 5D shld r5,r2
00008000: 49 2D shld r2,r9
00008000: 4A CD shld r12,r10
# 0100nnnn00000000 "shll Rn"
00000000: 49 00 shll r9
00000000: 42 00 shll r2
00000000: 4B 00 shll r11
00000000: 4E 00 shll r14
FFFFFFFC: 49 00 shll r9
FFFFFFFC: 42 00 shll r2
FFFFFFFC: 4B 00 shll r11
FFFFFFFC: 4E 00 shll r14
00400462: 41 00 shll r1
00400462: 4D 00 shll r13
00400462: 40 00 shll r0
00400462: 4B 00 shll r11
00001234: 47 00 shll r7
00001234: 43 00 shll r3
00001234: 4F 00 shll r15
00001234: 4D 00 shll r13
00008000: 40 00 shll r0
00008000: 4F 00 shll r15
00008000: 4C 00 shll r12
00008000: 49 00 shll r9
# 0100nnnn00001000 "shll2 Rn"
00000000: 4A 08 shll2 r10
00000000: 47 08 shll2 r7
00000000: 4E 08 shll2 r14
00000000: 41 08 shll2 r1
FFFFFFFC: 4B 08 shll2 r11
FFFFFFFC: 43 08 shll2 r3
FFFFFFFC: 4F 08 shll2 r15
FFFFFFFC: 4C 08 shll2 r12
00400462: 49 08 shll2 r9
00400462: 4A 08 shll2 r10
00400462: 4C 08 shll2 r12
00400462: 4F 08 shll2 r15
00001234: 43 08 shll2 r3
00001234: 4B 08 shll2 r11
00001234: 4F 08 shll2 r15
00001234: 47 08 shll2 r7
00008000: 4A 08 shll2 r10
00008000: 45 08 shll2 r5
00008000: 4F 08 shll2 r15
00008000: 41 08 shll2 r1
# 0100nnnn00011000 "shll8 Rn"
00000000: 47 18 shll8 r7
00000000: 44 18 shll8 r4
00000000: 4A 18 shll8 r10
00000000: 41 18 shll8 r1
FFFFFFFC: 4D 18 shll8 r13
FFFFFFFC: 48 18 shll8 r8
FFFFFFFC: 49 18 shll8 r9
FFFFFFFC: 41 18 shll8 r1
00400462: 41 18 shll8 r1
00400462: 4E 18 shll8 r14
00400462: 47 18 shll8 r7
00400462: 46 18 shll8 r6
00001234: 4E 18 shll8 r14
00001234: 4D 18 shll8 r13
00001234: 49 18 shll8 r9
00001234: 4F 18 shll8 r15
00008000: 41 18 shll8 r1
00008000: 45 18 shll8 r5
00008000: 40 18 shll8 r0
00008000: 47 18 shll8 r7
# 0100nnnn00101000 "shll16 Rn"
00000000: 40 28 shll16 r0
00000000: 44 28 shll16 r4
00000000: 47 28 shll16 r7
00000000: 4E 28 shll16 r14
FFFFFFFC: 48 28 shll16 r8
FFFFFFFC: 47 28 shll16 r7
FFFFFFFC: 4F 28 shll16 r15
FFFFFFFC: 44 28 shll16 r4
00400462: 48 28 shll16 r8
00400462: 42 28 shll16 r2
00400462: 4A 28 shll16 r10
00400462: 40 28 shll16 r0
00001234: 43 28 shll16 r3
00001234: 4F 28 shll16 r15
00001234: 4C 28 shll16 r12
00001234: 49 28 shll16 r9
00008000: 4B 28 shll16 r11
00008000: 46 28 shll16 r6
00008000: 40 28 shll16 r0
00008000: 4E 28 shll16 r14
# 0100nnnn00000001 "shlr Rn"
00000000: 45 01 shlr r5
00000000: 48 01 shlr r8
00000000: 4A 01 shlr r10
00000000: 41 01 shlr r1
FFFFFFFC: 40 01 shlr r0
FFFFFFFC: 4A 01 shlr r10
FFFFFFFC: 43 01 shlr r3
FFFFFFFC: 46 01 shlr r6
00400462: 4E 01 shlr r14
00400462: 4A 01 shlr r10
00400462: 4B 01 shlr r11
00400462: 48 01 shlr r8
00001234: 44 01 shlr r4
00001234: 4D 01 shlr r13
00001234: 4E 01 shlr r14
00001234: 4B 01 shlr r11
00008000: 4C 01 shlr r12
00008000: 4B 01 shlr r11
00008000: 46 01 shlr r6
00008000: 49 01 shlr r9
# 0100nnnn00001001 "shlr2 Rn"
00000000: 49 09 shlr2 r9
00000000: 41 09 shlr2 r1
00000000: 43 09 shlr2 r3
00000000: 44 09 shlr2 r4
FFFFFFFC: 43 09 shlr2 r3
FFFFFFFC: 40 09 shlr2 r0
FFFFFFFC: 4B 09 shlr2 r11
FFFFFFFC: 4A 09 shlr2 r10
00400462: 48 09 shlr2 r8
00400462: 4B 09 shlr2 r11
00400462: 4F 09 shlr2 r15
00400462: 43 09 shlr2 r3
00001234: 43 09 shlr2 r3
00001234: 49 09 shlr2 r9
00001234: 42 09 shlr2 r2
00001234: 4A 09 shlr2 r10
00008000: 49 09 shlr2 r9
00008000: 43 09 shlr2 r3
00008000: 4F 09 shlr2 r15
00008000: 4A 09 shlr2 r10
# 0100nnnn00011001 "shlr8 Rn"
00000000: 4F 19 shlr8 r15
00000000: 47 19 shlr8 r7
00000000: 45 19 shlr8 r5
00000000: 46 19 shlr8 r6
FFFFFFFC: 44 19 shlr8 r4
FFFFFFFC: 46 19 shlr8 r6
FFFFFFFC: 49 19 shlr8 r9
FFFFFFFC: 41 19 shlr8 r1
00400462: 4E 19 shlr8 r14
00400462: 46 19 shlr8 r6
00400462: 47 19 shlr8 r7
00400462: 4C 19 shlr8 r12
00001234: 46 19 shlr8 r6
00001234: 43 19 shlr8 r3
00001234: 48 19 shlr8 r8
00001234: 4C 19 shlr8 r12
00008000: 44 19 shlr8 r4
00008000: 49 19 shlr8 r9
00008000: 4F 19 shlr8 r15
00008000: 4E 19 shlr8 r14
# 0100nnnn00101001 "shlr16 Rn"
00000000: 4F 29 shlr16 r15
00000000: 41 29 shlr16 r1
00000000: 4A 29 shlr16 r10
00000000: 4E 29 shlr16 r14
FFFFFFFC: 40 29 shlr16 r0
FFFFFFFC: 4B 29 shlr16 r11
FFFFFFFC: 4E 29 shlr16 r14
FFFFFFFC: 44 29 shlr16 r4
00400462: 4E 29 shlr16 r14
00400462: 4C 29 shlr16 r12
00400462: 4F 29 shlr16 r15
00400462: 42 29 shlr16 r2
00001234: 44 29 shlr16 r4
00001234: 40 29 shlr16 r0
00001234: 4F 29 shlr16 r15
00001234: 41 29 shlr16 r1
00008000: 41 29 shlr16 r1
00008000: 4F 29 shlr16 r15
00008000: 4D 29 shlr16 r13
00008000: 48 29 shlr16 r8
# 10001011dddddddd "bf label"
00000000: 8B C2 bf 0xffffffffffffff88
00000000: 8B 70 bf 0x00000000000000e4
00000000: 8B B4 bf 0xffffffffffffff6c
00000000: 8B 6D bf 0x00000000000000de
FFFFFFFC: 8B 5A bf 0x00000001000000b4
FFFFFFFC: 8B 63 bf 0x00000001000000c6
FFFFFFFC: 8B 8E bf 0x00000000ffffff1c
FFFFFFFC: 8B 8C bf 0x00000000ffffff18
00400462: 8B 42 bf 0x00000000004004ea
00400462: 8B 88 bf 0x0000000000400376
00400462: 8B 5C bf 0x000000000040051e
00400462: 8B 85 bf 0x0000000000400370
00001234: 8B 93 bf 0x000000000000115e
00001234: 8B 7B bf 0x000000000000132e
00001234: 8B DE bf 0x00000000000011f4
00001234: 8B 75 bf 0x0000000000001322
00008000: 8B 55 bf 0x00000000000080ae
00008000: 8B AB bf 0x0000000000007f5a
00008000: 8B 5C bf 0x00000000000080bc
00008000: 8B 79 bf 0x00000000000080f6
# 10001111dddddddd "bf/s label"
00000000: 8F AD bf.s 0xffffffffffffff5e
00000000: 8F 42 bf.s 0x0000000000000088
00000000: 8F FF bf.s 0x0000000000000002
00000000: 8F F4 bf.s 0xffffffffffffffec
FFFFFFFC: 8F E7 bf.s 0x00000000ffffffce
FFFFFFFC: 8F 90 bf.s 0x00000000ffffff20
FFFFFFFC: 8F 31 bf.s 0x0000000100000062
FFFFFFFC: 8F 4A bf.s 0x0000000100000094
00400462: 8F C0 bf.s 0x00000000004003e6
00400462: 8F 52 bf.s 0x000000000040050a
00400462: 8F 4A bf.s 0x00000000004004fa
00400462: 8F 6A bf.s 0x000000000040053a
00001234: 8F B1 bf.s 0x000000000000119a
00001234: 8F F7 bf.s 0x0000000000001226
00001234: 8F 53 bf.s 0x00000000000012de
00001234: 8F 29 bf.s 0x000000000000128a
00008000: 8F 89 bf.s 0x0000000000007f16
00008000: 8F 2C bf.s 0x000000000000805c
00008000: 8F 42 bf.s 0x0000000000008088
00008000: 8F AE bf.s 0x0000000000007f60
# 10001001dddddddd "bt label"
00000000: 89 6F bt 0x00000000000000e2
00000000: 89 3A bt 0x0000000000000078
00000000: 89 AA bt 0xffffffffffffff58
00000000: 89 17 bt 0x0000000000000032
FFFFFFFC: 89 27 bt 0x000000010000004e
FFFFFFFC: 89 83 bt 0x00000000ffffff06
FFFFFFFC: 89 65 bt 0x00000001000000ca
FFFFFFFC: 89 63 bt 0x00000001000000c6
00400462: 89 2E bt 0x00000000004004c2
00400462: 89 73 bt 0x000000000040054c
00400462: 89 DD bt 0x0000000000400420
00400462: 89 CD bt 0x0000000000400400
00001234: 89 98 bt 0x0000000000001168
00001234: 89 94 bt 0x0000000000001160
00001234: 89 4F bt 0x00000000000012d6
00001234: 89 8E bt 0x0000000000001154
00008000: 89 70 bt 0x00000000000080e4
00008000: 89 25 bt 0x000000000000804e
00008000: 89 01 bt 0x0000000000008006
00008000: 89 B0 bt 0x0000000000007f64
# 10001101dddddddd "bt/s label"
00000000: 8D 76 bt.s 0x00000000000000f0
00000000: 8D 78 bt.s 0x00000000000000f4
00000000: 8D 28 bt.s 0x0000000000000054
00000000: 8D 80 bt.s 0xffffffffffffff04
FFFFFFFC: 8D 89 bt.s 0x00000000ffffff12
FFFFFFFC: 8D 43 bt.s 0x0000000100000086
FFFFFFFC: 8D 85 bt.s 0x00000000ffffff0a
FFFFFFFC: 8D 1A bt.s 0x0000000100000034
00400462: 8D 3F bt.s 0x00000000004004e4
00400462: 8D 37 bt.s 0x00000000004004d4
00400462: 8D 7B bt.s 0x000000000040055c
00400462: 8D 8D bt.s 0x0000000000400380
00001234: 8D F5 bt.s 0x0000000000001222
00001234: 8D DF bt.s 0x00000000000011f6
00001234: 8D E0 bt.s 0x00000000000011f8
00001234: 8D E6 bt.s 0x0000000000001204
00008000: 8D E5 bt.s 0x0000000000007fce
00008000: 8D 7E bt.s 0x0000000000008100
00008000: 8D FE bt.s 0x0000000000008000
00008000: 8D BD bt.s 0x0000000000007f7e
# 1010dddddddddddd "bra label"
00000000: AF 86 bra 0xffffffffffffff10
00000000: A1 07 bra 0x0000000000000212
00000000: AC 5C bra 0xfffffffffffff8bc
00000000: A9 07 bra 0xfffffffffffff212
FFFFFFFC: A1 AF bra 0x000000010000035e
FFFFFFFC: A3 64 bra 0x00000001000006c8
FFFFFFFC: AF 2A bra 0x00000000fffffe54
FFFFFFFC: A7 E6 bra 0x0000000100000fcc
00400462: A1 32 bra 0x00000000004006ca
00400462: AD D4 bra 0x000000000040000e
00400462: A2 2C bra 0x00000000004008be
00400462: A1 92 bra 0x000000000040078a
00001234: A3 67 bra 0x0000000000001906
00001234: A1 9E bra 0x0000000000001574
00001234: AB 2D bra 0x0000000000000892
00001234: AA 53 bra 0x00000000000006de
00008000: AE 91 bra 0x0000000000007d26
00008000: AE 57 bra 0x0000000000007cb2
00008000: A8 B6 bra 0x0000000000007170
00008000: AD 67 bra 0x0000000000007ad2
# 0000mmmm00100011 "braf Rm"
00000000: 0C 23 braf r12
00000000: 01 23 braf r1
00000000: 07 23 braf r7
00000000: 0B 23 braf r11
FFFFFFFC: 0A 23 braf r10
FFFFFFFC: 09 23 braf r9
FFFFFFFC: 03 23 braf r3
FFFFFFFC: 0E 23 braf r14
00400462: 04 23 braf r4
00400462: 05 23 braf r5
00400462: 0E 23 braf r14
00400462: 0B 23 braf r11
00001234: 0F 23 braf r15
00001234: 04 23 braf r4
00001234: 07 23 braf r7
00001234: 06 23 braf r6
00008000: 03 23 braf r3
00008000: 01 23 braf r1
00008000: 0D 23 braf r13
00008000: 0F 23 braf r15
# 1011dddddddddddd "bsr label"
00000000: B9 1D bsr 0xfffffffffffff23e
00000000: BE F1 bsr 0xfffffffffffffde6
00000000: B6 13 bsr 0x0000000000000c2a
00000000: B8 65 bsr 0xfffffffffffff0ce
FFFFFFFC: B9 3E bsr 0x00000000fffff27c
FFFFFFFC: BE C6 bsr 0x00000000fffffd8c
FFFFFFFC: B1 53 bsr 0x00000001000002a6
FFFFFFFC: BA D8 bsr 0x00000000fffff5b0
00400462: B2 8B bsr 0x000000000040097c
00400462: BA 4F bsr 0x00000000003ff904
00400462: B8 F3 bsr 0x00000000003ff64c
00400462: B1 43 bsr 0x00000000004006ec
00001234: B4 4D bsr 0x0000000000001ad2
00001234: BC 39 bsr 0x0000000000000aaa
00001234: B5 40 bsr 0x0000000000001cb8
00001234: B5 74 bsr 0x0000000000001d20
00008000: B5 7B bsr 0x0000000000008afa
00008000: B0 9D bsr 0x000000000000813e
00008000: BE 22 bsr 0x0000000000007c48
00008000: B6 70 bsr 0x0000000000008ce4
# 0000mmmm00000011 "bsrf Rm"
00000000: 06 03 bsrf r6
00000000: 01 03 bsrf r1
00000000: 0F 03 bsrf r15
00000000: 00 03 bsrf r0
FFFFFFFC: 09 03 bsrf r9
FFFFFFFC: 08 03 bsrf r8
FFFFFFFC: 01 03 bsrf r1
FFFFFFFC: 0B 03 bsrf r11
00400462: 07 03 bsrf r7
00400462: 00 03 bsrf r0
00400462: 01 03 bsrf r1
00400462: 0A 03 bsrf r10
00001234: 0D 03 bsrf r13
00001234: 08 03 bsrf r8
00001234: 0C 03 bsrf r12
00001234: 07 03 bsrf r7
00008000: 0D 03 bsrf r13
00008000: 04 03 bsrf r4
00008000: 01 03 bsrf r1
00008000: 02 03 bsrf r2
# 0100mmmm00101011 "jmp @Rm"
00000000: 4A 2B jmp @r10
00000000: 4F 2B jmp @r15
00000000: 43 2B jmp @r3
00000000: 41 2B jmp @r1
FFFFFFFC: 4E 2B jmp @r14
FFFFFFFC: 47 2B jmp @r7
FFFFFFFC: 44 2B jmp @r4
FFFFFFFC: 46 2B jmp @r6
00400462: 4C 2B jmp @r12
00400462: 43 2B jmp @r3
00400462: 48 2B jmp @r8
00400462: 41 2B jmp @r1
00001234: 43 2B jmp @r3
00001234: 45 2B jmp @r5
00001234: 4B 2B jmp @r11
00001234: 40 2B jmp @r0
00008000: 42 2B jmp @r2
00008000: 4D 2B jmp @r13
00008000: 4C 2B jmp @r12
00008000: 41 2B jmp @r1
# 0100mmmm00001011 "jsr @Rm"
00000000: 44 0B jsr @r4
00000000: 4A 0B jsr @r10
00000000: 4C 0B jsr @r12
00000000: 45 0B jsr @r5
FFFFFFFC: 4A 0B jsr @r10
FFFFFFFC: 4D 0B jsr @r13
FFFFFFFC: 4F 0B jsr @r15
FFFFFFFC: 47 0B jsr @r7
00400462: 45 0B jsr @r5
00400462: 43 0B jsr @r3
00400462: 4E 0B jsr @r14
00400462: 48 0B jsr @r8
00001234: 45 0B jsr @r5
00001234: 43 0B jsr @r3
00001234: 49 0B jsr @r9
00001234: 4C 0B jsr @r12
00008000: 4E 0B jsr @r14
00008000: 41 0B jsr @r1
00008000: 46 0B jsr @r6
00008000: 42 0B jsr @r2
# 0000000000001011 "rts"
00000000: 00 0B rts
FFFFFFFC: 00 0B rts
00400462: 00 0B rts
00001234: 00 0B rts
00008000: 00 0B rts
# 0000000000101000 "clrmac"
00000000: 00 28 clrmac
FFFFFFFC: 00 28 clrmac
00400462: 00 28 clrmac
00001234: 00 28 clrmac
00008000: 00 28 clrmac
# 0000000001001000 "clrs"
00000000: 00 48 clrs
FFFFFFFC: 00 48 clrs
00400462: 00 48 clrs
00001234: 00 48 clrs
00008000: 00 48 clrs
# 0000000000001000 "clrt"
00000000: 00 08 clrt
FFFFFFFC: 00 08 clrt
00400462: 00 08 clrt
00001234: 00 08 clrt
00008000: 00 08 clrt
# 0100mmmm00001110 "ldc Rm,SR"
00000000: 41 0E ldc r1,sr
00000000: 4E 0E ldc r14,sr
00000000: 47 0E ldc r7,sr
00000000: 45 0E ldc r5,sr
FFFFFFFC: 42 0E ldc r2,sr
FFFFFFFC: 4F 0E ldc r15,sr
FFFFFFFC: 4C 0E ldc r12,sr
FFFFFFFC: 45 0E ldc r5,sr
00400462: 41 0E ldc r1,sr
00400462: 44 0E ldc r4,sr
00400462: 45 0E ldc r5,sr
00400462: 4B 0E ldc r11,sr
00001234: 41 0E ldc r1,sr
00001234: 44 0E ldc r4,sr
00001234: 4A 0E ldc r10,sr
00001234: 45 0E ldc r5,sr
00008000: 4B 0E ldc r11,sr
00008000: 4D 0E ldc r13,sr
00008000: 44 0E ldc r4,sr
00008000: 46 0E ldc r6,sr
# 0100mmmm00000111 "ldc.l @Rm+,SR"
00000000: 4B 07 ldc.l @r11+,sr
00000000: 40 07 ldc.l @r0+,sr
00000000: 42 07 ldc.l @r2+,sr
00000000: 47 07 ldc.l @r7+,sr
FFFFFFFC: 4C 07 ldc.l @r12+,sr
FFFFFFFC: 4A 07 ldc.l @r10+,sr
FFFFFFFC: 4B 07 ldc.l @r11+,sr
FFFFFFFC: 43 07 ldc.l @r3+,sr
00400462: 47 07 ldc.l @r7+,sr
00400462: 4D 07 ldc.l @r13+,sr
00400462: 40 07 ldc.l @r0+,sr
00400462: 45 07 ldc.l @r5+,sr
00001234: 49 07 ldc.l @r9+,sr
00001234: 4D 07 ldc.l @r13+,sr
00001234: 48 07 ldc.l @r8+,sr
00001234: 45 07 ldc.l @r5+,sr
00008000: 44 07 ldc.l @r4+,sr
00008000: 45 07 ldc.l @r5+,sr
00008000: 48 07 ldc.l @r8+,sr
00008000: 4A 07 ldc.l @r10+,sr
# 0100mmmm00011110 "ldc Rm,GBR"
00000000: 43 1E ldc r3,gbr
00000000: 41 1E ldc r1,gbr
00000000: 45 1E ldc r5,gbr
00000000: 46 1E ldc r6,gbr
FFFFFFFC: 4F 1E ldc r15,gbr
FFFFFFFC: 44 1E ldc r4,gbr
FFFFFFFC: 4B 1E ldc r11,gbr
FFFFFFFC: 40 1E ldc r0,gbr
00400462: 4B 1E ldc r11,gbr
00400462: 44 1E ldc r4,gbr
00400462: 4C 1E ldc r12,gbr
00400462: 45 1E ldc r5,gbr
00001234: 4A 1E ldc r10,gbr
00001234: 45 1E ldc r5,gbr
00001234: 44 1E ldc r4,gbr
00001234: 41 1E ldc r1,gbr
00008000: 41 1E ldc r1,gbr
00008000: 49 1E ldc r9,gbr
00008000: 45 1E ldc r5,gbr
00008000: 48 1E ldc r8,gbr
# 0100mmmm00010111 "ldc.l @Rm+,GBR"
00000000: 4B 17 ldc.l @r11+,gbr
00000000: 4D 17 ldc.l @r13+,gbr
00000000: 42 17 ldc.l @r2+,gbr
00000000: 47 17 ldc.l @r7+,gbr
FFFFFFFC: 49 17 ldc.l @r9+,gbr
FFFFFFFC: 4B 17 ldc.l @r11+,gbr
FFFFFFFC: 48 17 ldc.l @r8+,gbr
FFFFFFFC: 43 17 ldc.l @r3+,gbr
00400462: 4F 17 ldc.l @r15+,gbr
00400462: 44 17 ldc.l @r4+,gbr
00400462: 4C 17 ldc.l @r12+,gbr
00400462: 42 17 ldc.l @r2+,gbr
00001234: 49 17 ldc.l @r9+,gbr
00001234: 4E 17 ldc.l @r14+,gbr
00001234: 41 17 ldc.l @r1+,gbr
00001234: 4F 17 ldc.l @r15+,gbr
00008000: 4A 17 ldc.l @r10+,gbr
00008000: 45 17 ldc.l @r5+,gbr
00008000: 46 17 ldc.l @r6+,gbr
00008000: 4D 17 ldc.l @r13+,gbr
# 0100mmmm00101110 "ldc Rm,VBR"
00000000: 4B 2E ldc r11,vbr
00000000: 45 2E ldc r5,vbr
00000000: 46 2E ldc r6,vbr
00000000: 4A 2E ldc r10,vbr
FFFFFFFC: 40 2E ldc r0,vbr
FFFFFFFC: 48 2E ldc r8,vbr
FFFFFFFC: 43 2E ldc r3,vbr
FFFFFFFC: 42 2E ldc r2,vbr
00400462: 42 2E ldc r2,vbr
00400462: 46 2E ldc r6,vbr
00400462: 4F 2E ldc r15,vbr
00400462: 47 2E ldc r7,vbr
00001234: 4B 2E ldc r11,vbr
00001234: 4A 2E ldc r10,vbr
00001234: 44 2E ldc r4,vbr
00001234: 46 2E ldc r6,vbr
00008000: 49 2E ldc r9,vbr
00008000: 42 2E ldc r2,vbr
00008000: 40 2E ldc r0,vbr
00008000: 48 2E ldc r8,vbr
# 0100mmmm00100111 "ldc.l @Rm+,VBR"
00000000: 46 27 ldc.l @r6+,vbr
00000000: 4C 27 ldc.l @r12+,vbr
00000000: 4B 27 ldc.l @r11+,vbr
00000000: 4F 27 ldc.l @r15+,vbr
FFFFFFFC: 4A 27 ldc.l @r10+,vbr
FFFFFFFC: 4D 27 ldc.l @r13+,vbr
FFFFFFFC: 47 27 ldc.l @r7+,vbr
FFFFFFFC: 4C 27 ldc.l @r12+,vbr
00400462: 4B 27 ldc.l @r11+,vbr
00400462: 4D 27 ldc.l @r13+,vbr
00400462: 42 27 ldc.l @r2+,vbr
00400462: 4C 27 ldc.l @r12+,vbr
00001234: 48 27 ldc.l @r8+,vbr
00001234: 49 27 ldc.l @r9+,vbr
00001234: 4D 27 ldc.l @r13+,vbr
00001234: 40 27 ldc.l @r0+,vbr
00008000: 4B 27 ldc.l @r11+,vbr
00008000: 4C 27 ldc.l @r12+,vbr
00008000: 4F 27 ldc.l @r15+,vbr
00008000: 40 27 ldc.l @r0+,vbr
# 0100mmmm00111110 "ldc Rm,SSR"
00000000: 46 3E ldc r6,ssr
00000000: 49 3E ldc r9,ssr
00000000: 42 3E ldc r2,ssr
00000000: 4F 3E ldc r15,ssr
FFFFFFFC: 41 3E ldc r1,ssr
FFFFFFFC: 4D 3E ldc r13,ssr
FFFFFFFC: 44 3E ldc r4,ssr
FFFFFFFC: 42 3E ldc r2,ssr
00400462: 47 3E ldc r7,ssr
00400462: 4C 3E ldc r12,ssr
00400462: 42 3E ldc r2,ssr
00400462: 4D 3E ldc r13,ssr
00001234: 40 3E ldc r0,ssr
00001234: 4B 3E ldc r11,ssr
00001234: 42 3E ldc r2,ssr
00001234: 43 3E ldc r3,ssr
00008000: 4A 3E ldc r10,ssr
00008000: 43 3E ldc r3,ssr
00008000: 4D 3E ldc r13,ssr
00008000: 40 3E ldc r0,ssr
# 0100mmmm00110111 "ldc.l @Rm+,SSR"
00000000: 4B 37 ldc.l @r11+,ssr
00000000: 40 37 ldc.l @r0+,ssr
00000000: 43 37 ldc.l @r3+,ssr
00000000: 44 37 ldc.l @r4+,ssr
FFFFFFFC: 44 37 ldc.l @r4+,ssr
FFFFFFFC: 4F 37 ldc.l @r15+,ssr
FFFFFFFC: 40 37 ldc.l @r0+,ssr
FFFFFFFC: 45 37 ldc.l @r5+,ssr
00400462: 45 37 ldc.l @r5+,ssr
00400462: 42 37 ldc.l @r2+,ssr
00400462: 4B 37 ldc.l @r11+,ssr
00400462: 4F 37 ldc.l @r15+,ssr
00001234: 42 37 ldc.l @r2+,ssr
00001234: 4B 37 ldc.l @r11+,ssr
00001234: 49 37 ldc.l @r9+,ssr
00001234: 4A 37 ldc.l @r10+,ssr
00008000: 4B 37 ldc.l @r11+,ssr
00008000: 4E 37 ldc.l @r14+,ssr
00008000: 48 37 ldc.l @r8+,ssr
00008000: 4A 37 ldc.l @r10+,ssr
# 0100mmmm01001110 "ldc Rm,SPC"
00000000: 49 4E ldc r9,spc
00000000: 4C 4E ldc r12,spc
00000000: 42 4E ldc r2,spc
00000000: 4D 4E ldc r13,spc
FFFFFFFC: 4E 4E ldc r14,spc
FFFFFFFC: 48 4E ldc r8,spc
FFFFFFFC: 4A 4E ldc r10,spc
FFFFFFFC: 45 4E ldc r5,spc
00400462: 44 4E ldc r4,spc
00400462: 4D 4E ldc r13,spc
00400462: 4B 4E ldc r11,spc
00400462: 46 4E ldc r6,spc
00001234: 40 4E ldc r0,spc
00001234: 4F 4E ldc r15,spc
00001234: 47 4E ldc r7,spc
00001234: 41 4E ldc r1,spc
00008000: 4D 4E ldc r13,spc
00008000: 48 4E ldc r8,spc
00008000: 49 4E ldc r9,spc
00008000: 47 4E ldc r7,spc
# 0100mmmm01000111 "ldc.l @Rm+,SPC"
00000000: 4E 47 ldc.l @r14+,spc
00000000: 40 47 ldc.l @r0+,spc
00000000: 4C 47 ldc.l @r12+,spc
00000000: 41 47 ldc.l @r1+,spc
FFFFFFFC: 45 47 ldc.l @r5+,spc
FFFFFFFC: 4D 47 ldc.l @r13+,spc
FFFFFFFC: 4E 47 ldc.l @r14+,spc
FFFFFFFC: 41 47 ldc.l @r1+,spc
00400462: 46 47 ldc.l @r6+,spc
00400462: 47 47 ldc.l @r7+,spc
00400462: 4B 47 ldc.l @r11+,spc
00400462: 43 47 ldc.l @r3+,spc
00001234: 49 47 ldc.l @r9+,spc
00001234: 4A 47 ldc.l @r10+,spc
00001234: 47 47 ldc.l @r7+,spc
00001234: 4C 47 ldc.l @r12+,spc
00008000: 40 47 ldc.l @r0+,spc
00008000: 4D 47 ldc.l @r13+,spc
00008000: 48 47 ldc.l @r8+,spc
00008000: 46 47 ldc.l @r6+,spc
# 0100mmmm11111010 "ldc Rm,DBR"
00000000: 40 FA ldc r0,dbr
00000000: 43 FA ldc r3,dbr
00000000: 4C FA ldc r12,dbr
00000000: 47 FA ldc r7,dbr
FFFFFFFC: 4D FA ldc r13,dbr
FFFFFFFC: 4F FA ldc r15,dbr
FFFFFFFC: 43 FA ldc r3,dbr
FFFFFFFC: 4E FA ldc r14,dbr
00400462: 41 FA ldc r1,dbr
00400462: 4D FA ldc r13,dbr
00400462: 49 FA ldc r9,dbr
00400462: 48 FA ldc r8,dbr
00001234: 46 FA ldc r6,dbr
00001234: 45 FA ldc r5,dbr
00001234: 44 FA ldc r4,dbr
00001234: 4A FA ldc r10,dbr
00008000: 4E FA ldc r14,dbr
00008000: 40 FA ldc r0,dbr
00008000: 49 FA ldc r9,dbr
00008000: 44 FA ldc r4,dbr
# 0100mmmm11110110 "ldc.l @Rm+,DBR"
00000000: 44 F6 ldc.l @r4+,dbr
00000000: 41 F6 ldc.l @r1+,dbr
00000000: 42 F6 ldc.l @r2+,dbr
00000000: 4E F6 ldc.l @r14+,dbr
FFFFFFFC: 44 F6 ldc.l @r4+,dbr
FFFFFFFC: 40 F6 ldc.l @r0+,dbr
FFFFFFFC: 4C F6 ldc.l @r12+,dbr
FFFFFFFC: 4A F6 ldc.l @r10+,dbr
00400462: 4B F6 ldc.l @r11+,dbr
00400462: 44 F6 ldc.l @r4+,dbr
00400462: 45 F6 ldc.l @r5+,dbr
00400462: 43 F6 ldc.l @r3+,dbr
00001234: 40 F6 ldc.l @r0+,dbr
00001234: 49 F6 ldc.l @r9+,dbr
00001234: 48 F6 ldc.l @r8+,dbr
00001234: 4C F6 ldc.l @r12+,dbr
00008000: 47 F6 ldc.l @r7+,dbr
00008000: 4C F6 ldc.l @r12+,dbr
00008000: 42 F6 ldc.l @r2+,dbr
00008000: 49 F6 ldc.l @r9+,dbr
# 0100mmmm1nnn1110 "ldc Rm,Rn_BANK"
00000000: 47 9E ldc r7,r1_bank
00000000: 45 DE ldc r5,r5_bank
00000000: 46 9E ldc r6,r1_bank
00000000: 46 EE ldc r6,r6_bank
FFFFFFFC: 49 DE ldc r9,r5_bank
FFFFFFFC: 4B AE ldc r11,r2_bank
FFFFFFFC: 42 EE ldc r2,r6_bank
FFFFFFFC: 45 EE ldc r5,r6_bank
00400462: 45 FE ldc r5,r7_bank
00400462: 4C 9E ldc r12,r1_bank
00400462: 4C AE ldc r12,r2_bank
00400462: 40 FE ldc r0,r7_bank
00001234: 43 BE ldc r3,r3_bank
00001234: 48 DE ldc r8,r5_bank
00001234: 46 EE ldc r6,r6_bank
00001234: 4F DE ldc r15,r5_bank
00008000: 4A DE ldc r10,r5_bank
00008000: 49 9E ldc r9,r1_bank
00008000: 49 8E ldc r9,r0_bank
00008000: 47 8E ldc r7,r0_bank
# 0100mmmm1nnn0111 "ldc.l @Rm+,Rn_BANK"
00000000: 47 87 ldc.l @r7+,r0_bank
00000000: 43 E7 ldc.l @r3+,r6_bank
00000000: 41 D7 ldc.l @r1+,r5_bank
00000000: 4A 87 ldc.l @r10+,r0_bank
FFFFFFFC: 48 F7 ldc.l @r8+,r7_bank
FFFFFFFC: 42 A7 ldc.l @r2+,r2_bank
FFFFFFFC: 41 C7 ldc.l @r1+,r4_bank
FFFFFFFC: 44 F7 ldc.l @r4+,r7_bank
00400462: 4E E7 ldc.l @r14+,r6_bank
00400462: 41 F7 ldc.l @r1+,r7_bank
00400462: 4F B7 ldc.l @r15+,r3_bank
00400462: 4B F7 ldc.l @r11+,r7_bank
00001234: 4D 87 ldc.l @r13+,r0_bank
00001234: 4E D7 ldc.l @r14+,r5_bank
00001234: 4A E7 ldc.l @r10+,r6_bank
00001234: 41 97 ldc.l @r1+,r1_bank
00008000: 4F A7 ldc.l @r15+,r2_bank
00008000: 4A F7 ldc.l @r10+,r7_bank
00008000: 4E F7 ldc.l @r14+,r7_bank
00008000: 4A E7 ldc.l @r10+,r6_bank
# 0100mmmm00001010 "lds Rm,MACH"
00000000: 4B 0A lds r11,mach
00000000: 4C 0A lds r12,mach
00000000: 4A 0A lds r10,mach
00000000: 40 0A lds r0,mach
FFFFFFFC: 47 0A lds r7,mach
FFFFFFFC: 4A 0A lds r10,mach
FFFFFFFC: 48 0A lds r8,mach
FFFFFFFC: 44 0A lds r4,mach
00400462: 45 0A lds r5,mach
00400462: 47 0A lds r7,mach
00400462: 4D 0A lds r13,mach
00400462: 4B 0A lds r11,mach
00001234: 43 0A lds r3,mach
00001234: 4B 0A lds r11,mach
00001234: 4A 0A lds r10,mach
00001234: 46 0A lds r6,mach
00008000: 43 0A lds r3,mach
00008000: 40 0A lds r0,mach
00008000: 4E 0A lds r14,mach
00008000: 42 0A lds r2,mach
# 0100mmmm00000110 "lds.l @Rm+,MACH"
00000000: 43 06 lds.l @r3+,mach
00000000: 4D 06 lds.l @r13+,mach
00000000: 41 06 lds.l @r1+,mach
00000000: 4A 06 lds.l @r10+,mach
FFFFFFFC: 40 06 lds.l @r0+,mach
FFFFFFFC: 48 06 lds.l @r8+,mach
FFFFFFFC: 43 06 lds.l @r3+,mach
FFFFFFFC: 4C 06 lds.l @r12+,mach
00400462: 44 06 lds.l @r4+,mach
00400462: 47 06 lds.l @r7+,mach
00400462: 49 06 lds.l @r9+,mach
00400462: 46 06 lds.l @r6+,mach
00001234: 41 06 lds.l @r1+,mach
00001234: 47 06 lds.l @r7+,mach
00001234: 46 06 lds.l @r6+,mach
00001234: 4D 06 lds.l @r13+,mach
00008000: 49 06 lds.l @r9+,mach
00008000: 45 06 lds.l @r5+,mach
00008000: 4B 06 lds.l @r11+,mach
00008000: 4A 06 lds.l @r10+,mach
# 0100mmmm00011010 "lds Rm,MACL"
00000000: 44 1A lds r4,macl
00000000: 49 1A lds r9,macl
00000000: 43 1A lds r3,macl
00000000: 4C 1A lds r12,macl
FFFFFFFC: 42 1A lds r2,macl
FFFFFFFC: 49 1A lds r9,macl
FFFFFFFC: 4A 1A lds r10,macl
FFFFFFFC: 4C 1A lds r12,macl
00400462: 47 1A lds r7,macl
00400462: 4C 1A lds r12,macl
00400462: 4A 1A lds r10,macl
00400462: 4D 1A lds r13,macl
00001234: 42 1A lds r2,macl
00001234: 4A 1A lds r10,macl
00001234: 45 1A lds r5,macl
00001234: 41 1A lds r1,macl
00008000: 4A 1A lds r10,macl
00008000: 49 1A lds r9,macl
00008000: 4E 1A lds r14,macl
00008000: 45 1A lds r5,macl
# 0100mmmm00010110 "lds.l @Rm+,MACL"
00000000: 45 16 lds.l @r5+,macl
00000000: 47 16 lds.l @r7+,macl
00000000: 4F 16 lds.l @r15+,macl
00000000: 48 16 lds.l @r8+,macl
FFFFFFFC: 43 16 lds.l @r3+,macl
FFFFFFFC: 47 16 lds.l @r7+,macl
FFFFFFFC: 40 16 lds.l @r0+,macl
FFFFFFFC: 46 16 lds.l @r6+,macl
00400462: 44 16 lds.l @r4+,macl
00400462: 4F 16 lds.l @r15+,macl
00400462: 4E 16 lds.l @r14+,macl
00400462: 4B 16 lds.l @r11+,macl
00001234: 47 16 lds.l @r7+,macl
00001234: 43 16 lds.l @r3+,macl
00001234: 48 16 lds.l @r8+,macl
00001234: 4D 16 lds.l @r13+,macl
00008000: 49 16 lds.l @r9+,macl
00008000: 4E 16 lds.l @r14+,macl
00008000: 4C 16 lds.l @r12+,macl
00008000: 41 16 lds.l @r1+,macl
# 0100mmmm00101010 "lds Rm,PR"
00000000: 46 2A lds r6,pr
00000000: 4F 2A lds r15,pr
00000000: 4E 2A lds r14,pr
00000000: 47 2A lds r7,pr
FFFFFFFC: 41 2A lds r1,pr
FFFFFFFC: 4A 2A lds r10,pr
FFFFFFFC: 46 2A lds r6,pr
FFFFFFFC: 44 2A lds r4,pr
00400462: 46 2A lds r6,pr
00400462: 4B 2A lds r11,pr
00400462: 4D 2A lds r13,pr
00400462: 43 2A lds r3,pr
00001234: 46 2A lds r6,pr
00001234: 4E 2A lds r14,pr
00001234: 41 2A lds r1,pr
00001234: 42 2A lds r2,pr
00008000: 4A 2A lds r10,pr
00008000: 48 2A lds r8,pr
00008000: 42 2A lds r2,pr
00008000: 41 2A lds r1,pr
# 0100mmmm00100110 "lds.l @Rm+,PR"
00000000: 41 26 lds.l @r1+,pr
00000000: 46 26 lds.l @r6+,pr
00000000: 4C 26 lds.l @r12+,pr
00000000: 45 26 lds.l @r5+,pr
FFFFFFFC: 4D 26 lds.l @r13+,pr
FFFFFFFC: 40 26 lds.l @r0+,pr
FFFFFFFC: 42 26 lds.l @r2+,pr
FFFFFFFC: 41 26 lds.l @r1+,pr
00400462: 46 26 lds.l @r6+,pr
00400462: 4C 26 lds.l @r12+,pr
00400462: 45 26 lds.l @r5+,pr
00400462: 48 26 lds.l @r8+,pr
00001234: 47 26 lds.l @r7+,pr
00001234: 4E 26 lds.l @r14+,pr
00001234: 4A 26 lds.l @r10+,pr
00001234: 40 26 lds.l @r0+,pr
00008000: 41 26 lds.l @r1+,pr
00008000: 43 26 lds.l @r3+,pr
00008000: 49 26 lds.l @r9+,pr
00008000: 44 26 lds.l @r4+,pr
# 0000000000111000 "ldtlb"
00000000: 00 38 ldtlb
FFFFFFFC: 00 38 ldtlb
00400462: 00 38 ldtlb
00001234: 00 38 ldtlb
00008000: 00 38 ldtlb
# 0000nnnn11000011 "movca.l R0,@Rn"
00000000: 06 C3 movca.l r0,@r6
00000000: 05 C3 movca.l r0,@r5
00000000: 03 C3 movca.l r0,@r3
00000000: 0B C3 movca.l r0,@r11
FFFFFFFC: 09 C3 movca.l r0,@r9
FFFFFFFC: 05 C3 movca.l r0,@r5
FFFFFFFC: 0F C3 movca.l r0,@r15
FFFFFFFC: 03 C3 movca.l r0,@r3
00400462: 05 C3 movca.l r0,@r5
00400462: 07 C3 movca.l r0,@r7
00400462: 08 C3 movca.l r0,@r8
00400462: 02 C3 movca.l r0,@r2
00001234: 03 C3 movca.l r0,@r3
00001234: 09 C3 movca.l r0,@r9
00001234: 0B C3 movca.l r0,@r11
00001234: 01 C3 movca.l r0,@r1
00008000: 09 C3 movca.l r0,@r9
00008000: 07 C3 movca.l r0,@r7
00008000: 0E C3 movca.l r0,@r14
00008000: 08 C3 movca.l r0,@r8
# 0000000000001001 "nop"
00000000: 00 09 nop
FFFFFFFC: 00 09 nop
00400462: 00 09 nop
00001234: 00 09 nop
00008000: 00 09 nop
# 0000nnnn10010011 "ocbi @Rn"
00000000: 0F 93 ocbi @r15
00000000: 0C 93 ocbi @r12
00000000: 01 93 ocbi @r1
00000000: 05 93 ocbi @r5
FFFFFFFC: 07 93 ocbi @r7
FFFFFFFC: 0C 93 ocbi @r12
FFFFFFFC: 03 93 ocbi @r3
FFFFFFFC: 00 93 ocbi @r0
00400462: 03 93 ocbi @r3
00400462: 02 93 ocbi @r2
00400462: 0B 93 ocbi @r11
00400462: 05 93 ocbi @r5
00001234: 00 93 ocbi @r0
00001234: 04 93 ocbi @r4
00001234: 0A 93 ocbi @r10
00001234: 03 93 ocbi @r3
00008000: 00 93 ocbi @r0
00008000: 04 93 ocbi @r4
00008000: 0A 93 ocbi @r10
00008000: 01 93 ocbi @r1
# 0000nnnn10100011 "ocbp @Rn"
00000000: 06 A3 ocbp @r6
00000000: 0F A3 ocbp @r15
00000000: 0D A3 ocbp @r13
00000000: 0E A3 ocbp @r14
FFFFFFFC: 0F A3 ocbp @r15
FFFFFFFC: 0B A3 ocbp @r11
FFFFFFFC: 0C A3 ocbp @r12
FFFFFFFC: 05 A3 ocbp @r5
00400462: 0D A3 ocbp @r13
00400462: 0F A3 ocbp @r15
00400462: 0E A3 ocbp @r14
00400462: 00 A3 ocbp @r0
00001234: 0B A3 ocbp @r11
00001234: 07 A3 ocbp @r7
00001234: 0E A3 ocbp @r14
00001234: 0A A3 ocbp @r10
00008000: 06 A3 ocbp @r6
00008000: 02 A3 ocbp @r2
00008000: 0F A3 ocbp @r15
00008000: 04 A3 ocbp @r4
# 0000nnnn10110011 "ocbwb @Rn"
00000000: 0B B3 ocbwb @r11
00000000: 05 B3 ocbwb @r5
00000000: 0D B3 ocbwb @r13
00000000: 08 B3 ocbwb @r8
FFFFFFFC: 0D B3 ocbwb @r13
FFFFFFFC: 05 B3 ocbwb @r5
FFFFFFFC: 00 B3 ocbwb @r0
FFFFFFFC: 0C B3 ocbwb @r12
00400462: 07 B3 ocbwb @r7
00400462: 0B B3 ocbwb @r11
00400462: 01 B3 ocbwb @r1
00400462: 0F B3 ocbwb @r15
00001234: 02 B3 ocbwb @r2
00001234: 04 B3 ocbwb @r4
00001234: 0F B3 ocbwb @r15
00001234: 01 B3 ocbwb @r1
00008000: 02 B3 ocbwb @r2
00008000: 04 B3 ocbwb @r4
00008000: 08 B3 ocbwb @r8
00008000: 0E B3 ocbwb @r14
# 0000nnnn10000011 "pref @Rn"
00000000: 07 83 pref @r7
00000000: 02 83 pref @r2
00000000: 0C 83 pref @r12
00000000: 0D 83 pref @r13
FFFFFFFC: 06 83 pref @r6
FFFFFFFC: 03 83 pref @r3
FFFFFFFC: 0C 83 pref @r12
FFFFFFFC: 09 83 pref @r9
00400462: 08 83 pref @r8
00400462: 03 83 pref @r3
00400462: 07 83 pref @r7
00400462: 0F 83 pref @r15
00001234: 09 83 pref @r9
00001234: 00 83 pref @r0
00001234: 0A 83 pref @r10
00001234: 03 83 pref @r3
00008000: 0F 83 pref @r15
00008000: 01 83 pref @r1
00008000: 0E 83 pref @r14
00008000: 08 83 pref @r8
# 0000000000101011 "rte"
00000000: 00 2B rte
FFFFFFFC: 00 2B rte
00400462: 00 2B rte
00001234: 00 2B rte
00008000: 00 2B rte
# 0000000001011000 "sets"
00000000: 00 58 sets
FFFFFFFC: 00 58 sets
00400462: 00 58 sets
00001234: 00 58 sets
00008000: 00 58 sets
# 0000000000011000 "sett"
00000000: 00 18 sett
FFFFFFFC: 00 18 sett
00400462: 00 18 sett
00001234: 00 18 sett
00008000: 00 18 sett
# 0000000000011011 "sleep"
00000000: 00 1B sleep
FFFFFFFC: 00 1B sleep
00400462: 00 1B sleep
00001234: 00 1B sleep
00008000: 00 1B sleep
# 0000nnnn00000010 "stc SR,Rn"
00000000: 0C 02 stc sr,r12
00000000: 04 02 stc sr,r4
00000000: 08 02 stc sr,r8
00000000: 06 02 stc sr,r6
FFFFFFFC: 00 02 stc sr,r0
FFFFFFFC: 09 02 stc sr,r9
FFFFFFFC: 0F 02 stc sr,r15
FFFFFFFC: 0B 02 stc sr,r11
00400462: 0F 02 stc sr,r15
00400462: 03 02 stc sr,r3
00400462: 04 02 stc sr,r4
00400462: 06 02 stc sr,r6
00001234: 02 02 stc sr,r2
00001234: 08 02 stc sr,r8
00001234: 0F 02 stc sr,r15
00001234: 03 02 stc sr,r3
00008000: 03 02 stc sr,r3
00008000: 0E 02 stc sr,r14
00008000: 07 02 stc sr,r7
00008000: 0F 02 stc sr,r15
# 0100nnnn00000011 "stc.l SR,@-Rn"
00000000: 4B 03 stc.l sr,@-r11
00000000: 43 03 stc.l sr,@-r3
00000000: 42 03 stc.l sr,@-r2
00000000: 4E 03 stc.l sr,@-r14
FFFFFFFC: 44 03 stc.l sr,@-r4
FFFFFFFC: 4D 03 stc.l sr,@-r13
FFFFFFFC: 4C 03 stc.l sr,@-r12
FFFFFFFC: 4E 03 stc.l sr,@-r14
00400462: 42 03 stc.l sr,@-r2
00400462: 4A 03 stc.l sr,@-r10
00400462: 4B 03 stc.l sr,@-r11
00400462: 48 03 stc.l sr,@-r8
00001234: 45 03 stc.l sr,@-r5
00001234: 43 03 stc.l sr,@-r3
00001234: 4F 03 stc.l sr,@-r15
00001234: 4B 03 stc.l sr,@-r11
00008000: 47 03 stc.l sr,@-r7
00008000: 43 03 stc.l sr,@-r3
00008000: 41 03 stc.l sr,@-r1
00008000: 49 03 stc.l sr,@-r9
# 0000nnnn00010010 "stc GBR,Rn"
00000000: 0D 12 stc gbr,r13
00000000: 00 12 stc gbr,r0
00000000: 08 12 stc gbr,r8
00000000: 06 12 stc gbr,r6
FFFFFFFC: 0A 12 stc gbr,r10
FFFFFFFC: 03 12 stc gbr,r3
FFFFFFFC: 05 12 stc gbr,r5
FFFFFFFC: 08 12 stc gbr,r8
00400462: 0E 12 stc gbr,r14
00400462: 0F 12 stc gbr,r15
00400462: 07 12 stc gbr,r7
00400462: 03 12 stc gbr,r3
00001234: 0B 12 stc gbr,r11
00001234: 01 12 stc gbr,r1
00001234: 08 12 stc gbr,r8
00001234: 09 12 stc gbr,r9
00008000: 05 12 stc gbr,r5
00008000: 02 12 stc gbr,r2
00008000: 07 12 stc gbr,r7
00008000: 0D 12 stc gbr,r13
# 0100nnnn00010011 "stc.l GBR,@-Rn"
00000000: 42 13 stc.l gbr,@-r2
00000000: 4B 13 stc.l gbr,@-r11
00000000: 41 13 stc.l gbr,@-r1
00000000: 45 13 stc.l gbr,@-r5
FFFFFFFC: 44 13 stc.l gbr,@-r4
FFFFFFFC: 48 13 stc.l gbr,@-r8
FFFFFFFC: 49 13 stc.l gbr,@-r9
FFFFFFFC: 4F 13 stc.l gbr,@-r15
00400462: 46 13 stc.l gbr,@-r6
00400462: 4C 13 stc.l gbr,@-r12
00400462: 4F 13 stc.l gbr,@-r15
00400462: 49 13 stc.l gbr,@-r9
00001234: 47 13 stc.l gbr,@-r7
00001234: 48 13 stc.l gbr,@-r8
00001234: 40 13 stc.l gbr,@-r0
00001234: 4A 13 stc.l gbr,@-r10
00008000: 49 13 stc.l gbr,@-r9
00008000: 4C 13 stc.l gbr,@-r12
00008000: 48 13 stc.l gbr,@-r8
00008000: 4F 13 stc.l gbr,@-r15
# 0000nnnn00100010 "stc VBR,Rn"
00000000: 0D 22 stc vbr,r13
00000000: 09 22 stc vbr,r9
00000000: 02 22 stc vbr,r2
00000000: 06 22 stc vbr,r6
FFFFFFFC: 0B 22 stc vbr,r11
FFFFFFFC: 05 22 stc vbr,r5
FFFFFFFC: 06 22 stc vbr,r6
FFFFFFFC: 03 22 stc vbr,r3
00400462: 0D 22 stc vbr,r13
00400462: 05 22 stc vbr,r5
00400462: 02 22 stc vbr,r2
00400462: 04 22 stc vbr,r4
00001234: 01 22 stc vbr,r1
00001234: 0E 22 stc vbr,r14
00001234: 03 22 stc vbr,r3
00001234: 06 22 stc vbr,r6
00008000: 06 22 stc vbr,r6
00008000: 0C 22 stc vbr,r12
00008000: 00 22 stc vbr,r0
00008000: 07 22 stc vbr,r7
# 0100nnnn00100011 "stc.l VBR,@-Rn"
00000000: 4D 23 stc.l vbr,@-r13
00000000: 40 23 stc.l vbr,@-r0
00000000: 4B 23 stc.l vbr,@-r11
00000000: 4F 23 stc.l vbr,@-r15
FFFFFFFC: 4A 23 stc.l vbr,@-r10
FFFFFFFC: 41 23 stc.l vbr,@-r1
FFFFFFFC: 42 23 stc.l vbr,@-r2
FFFFFFFC: 46 23 stc.l vbr,@-r6
00400462: 4A 23 stc.l vbr,@-r10
00400462: 43 23 stc.l vbr,@-r3
00400462: 41 23 stc.l vbr,@-r1
00400462: 47 23 stc.l vbr,@-r7
00001234: 48 23 stc.l vbr,@-r8
00001234: 4B 23 stc.l vbr,@-r11
00001234: 4A 23 stc.l vbr,@-r10
00001234: 49 23 stc.l vbr,@-r9
00008000: 42 23 stc.l vbr,@-r2
00008000: 4B 23 stc.l vbr,@-r11
00008000: 4A 23 stc.l vbr,@-r10
00008000: 44 23 stc.l vbr,@-r4
# 0000nnnn00111010 "stc SGR,Rn"
00000000: 0B 3A stc sgr,r11
00000000: 0A 3A stc sgr,r10
00000000: 03 3A stc sgr,r3
00000000: 01 3A stc sgr,r1
FFFFFFFC: 00 3A stc sgr,r0
FFFFFFFC: 06 3A stc sgr,r6
FFFFFFFC: 0B 3A stc sgr,r11
FFFFFFFC: 09 3A stc sgr,r9
00400462: 09 3A stc sgr,r9
00400462: 0A 3A stc sgr,r10
00400462: 04 3A stc sgr,r4
00400462: 08 3A stc sgr,r8
00001234: 0A 3A stc sgr,r10
00001234: 05 3A stc sgr,r5
00001234: 00 3A stc sgr,r0
00001234: 04 3A stc sgr,r4
00008000: 05 3A stc sgr,r5
00008000: 07 3A stc sgr,r7
00008000: 0C 3A stc sgr,r12
00008000: 04 3A stc sgr,r4
# 0100nnnn00110010 "stc.l SGR,@-Rn"
00000000: 43 32 stc.l sgr,@-r3
00000000: 45 32 stc.l sgr,@-r5
00000000: 4E 32 stc.l sgr,@-r14
00000000: 4B 32 stc.l sgr,@-r11
FFFFFFFC: 47 32 stc.l sgr,@-r7
FFFFFFFC: 4A 32 stc.l sgr,@-r10
FFFFFFFC: 49 32 stc.l sgr,@-r9
FFFFFFFC: 46 32 stc.l sgr,@-r6
00400462: 47 32 stc.l sgr,@-r7
00400462: 41 32 stc.l sgr,@-r1
00400462: 4F 32 stc.l sgr,@-r15
00400462: 44 32 stc.l sgr,@-r4
00001234: 49 32 stc.l sgr,@-r9
00001234: 45 32 stc.l sgr,@-r5
00001234: 43 32 stc.l sgr,@-r3
00001234: 48 32 stc.l sgr,@-r8
00008000: 41 32 stc.l sgr,@-r1
00008000: 4E 32 stc.l sgr,@-r14
00008000: 4A 32 stc.l sgr,@-r10
00008000: 4C 32 stc.l sgr,@-r12
# 0000nnnn00110010 "stc SSR,Rn"
00000000: 05 32 stc ssr,r5
00000000: 01 32 stc ssr,r1
00000000: 02 32 stc ssr,r2
00000000: 08 32 stc ssr,r8
FFFFFFFC: 0A 32 stc ssr,r10
FFFFFFFC: 01 32 stc ssr,r1
FFFFFFFC: 04 32 stc ssr,r4
FFFFFFFC: 07 32 stc ssr,r7
00400462: 03 32 stc ssr,r3
00400462: 0B 32 stc ssr,r11
00400462: 09 32 stc ssr,r9
00400462: 0F 32 stc ssr,r15
00001234: 01 32 stc ssr,r1
00001234: 0A 32 stc ssr,r10
00001234: 04 32 stc ssr,r4
00001234: 02 32 stc ssr,r2
00008000: 0A 32 stc ssr,r10
00008000: 07 32 stc ssr,r7
00008000: 0C 32 stc ssr,r12
00008000: 0B 32 stc ssr,r11
# 0100nnnn00110011 "stc.l SSR,@-Rn"
00000000: 4C 33 stc.l ssr,@-r12
00000000: 45 33 stc.l ssr,@-r5
00000000: 48 33 stc.l ssr,@-r8
00000000: 41 33 stc.l ssr,@-r1
FFFFFFFC: 49 33 stc.l ssr,@-r9
FFFFFFFC: 4A 33 stc.l ssr,@-r10
FFFFFFFC: 4C 33 stc.l ssr,@-r12
FFFFFFFC: 45 33 stc.l ssr,@-r5
00400462: 4D 33 stc.l ssr,@-r13
00400462: 4C 33 stc.l ssr,@-r12
00400462: 40 33 stc.l ssr,@-r0
00400462: 4A 33 stc.l ssr,@-r10
00001234: 4F 33 stc.l ssr,@-r15
00001234: 42 33 stc.l ssr,@-r2
00001234: 4C 33 stc.l ssr,@-r12
00001234: 48 33 stc.l ssr,@-r8
00008000: 44 33 stc.l ssr,@-r4
00008000: 41 33 stc.l ssr,@-r1
00008000: 49 33 stc.l ssr,@-r9
00008000: 4C 33 stc.l ssr,@-r12
# 0000nnnn01000010 "stc SPC,Rn"
00000000: 08 42 stc spc,r8
00000000: 0C 42 stc spc,r12
00000000: 03 42 stc spc,r3
00000000: 04 42 stc spc,r4
FFFFFFFC: 0C 42 stc spc,r12
FFFFFFFC: 06 42 stc spc,r6
FFFFFFFC: 0E 42 stc spc,r14
FFFFFFFC: 0A 42 stc spc,r10
00400462: 05 42 stc spc,r5
00400462: 0D 42 stc spc,r13
00400462: 0E 42 stc spc,r14
00400462: 00 42 stc spc,r0
00001234: 0B 42 stc spc,r11
00001234: 01 42 stc spc,r1
00001234: 04 42 stc spc,r4
00001234: 09 42 stc spc,r9
00008000: 0C 42 stc spc,r12
00008000: 0D 42 stc spc,r13
00008000: 07 42 stc spc,r7
00008000: 09 42 stc spc,r9
# 0100nnnn01000011 "stc.l SPC,@-Rn"
00000000: 4B 43 stc.l spc,@-r11
00000000: 46 43 stc.l spc,@-r6
00000000: 4C 43 stc.l spc,@-r12
00000000: 40 43 stc.l spc,@-r0
FFFFFFFC: 49 43 stc.l spc,@-r9
FFFFFFFC: 47 43 stc.l spc,@-r7
FFFFFFFC: 4B 43 stc.l spc,@-r11
FFFFFFFC: 42 43 stc.l spc,@-r2
00400462: 4B 43 stc.l spc,@-r11
00400462: 49 43 stc.l spc,@-r9
00400462: 40 43 stc.l spc,@-r0
00400462: 4C 43 stc.l spc,@-r12
00001234: 4B 43 stc.l spc,@-r11
00001234: 45 43 stc.l spc,@-r5
00001234: 42 43 stc.l spc,@-r2
00001234: 47 43 stc.l spc,@-r7
00008000: 4F 43 stc.l spc,@-r15
00008000: 4B 43 stc.l spc,@-r11
00008000: 46 43 stc.l spc,@-r6
00008000: 40 43 stc.l spc,@-r0
# 0000nnnn11111010 "stc DBR,Rn"
00000000: 0F FA stc dbr,r15
00000000: 01 FA stc dbr,r1
00000000: 0A FA stc dbr,r10
00000000: 02 FA stc dbr,r2
FFFFFFFC: 00 FA stc dbr,r0
FFFFFFFC: 0E FA stc dbr,r14
FFFFFFFC: 0F FA stc dbr,r15
FFFFFFFC: 07 FA stc dbr,r7
00400462: 08 FA stc dbr,r8
00400462: 03 FA stc dbr,r3
00400462: 0C FA stc dbr,r12
00400462: 0F FA stc dbr,r15
00001234: 06 FA stc dbr,r6
00001234: 0E FA stc dbr,r14
00001234: 00 FA stc dbr,r0
00001234: 0C FA stc dbr,r12
00008000: 00 FA stc dbr,r0
00008000: 0E FA stc dbr,r14
00008000: 07 FA stc dbr,r7
00008000: 0A FA stc dbr,r10
# 0100nnnn11110010 "stc.l DBR,@-Rn"
00000000: 40 F2 stc.l dbr,@-r0
00000000: 45 F2 stc.l dbr,@-r5
00000000: 4B F2 stc.l dbr,@-r11
00000000: 47 F2 stc.l dbr,@-r7
FFFFFFFC: 4C F2 stc.l dbr,@-r12
FFFFFFFC: 40 F2 stc.l dbr,@-r0
FFFFFFFC: 4B F2 stc.l dbr,@-r11
FFFFFFFC: 43 F2 stc.l dbr,@-r3
00400462: 40 F2 stc.l dbr,@-r0
00400462: 4B F2 stc.l dbr,@-r11
00400462: 46 F2 stc.l dbr,@-r6
00400462: 48 F2 stc.l dbr,@-r8
00001234: 41 F2 stc.l dbr,@-r1
00001234: 40 F2 stc.l dbr,@-r0
00001234: 4C F2 stc.l dbr,@-r12
00001234: 49 F2 stc.l dbr,@-r9
00008000: 40 F2 stc.l dbr,@-r0
00008000: 45 F2 stc.l dbr,@-r5
00008000: 4F F2 stc.l dbr,@-r15
00008000: 43 F2 stc.l dbr,@-r3
# 0000nnnn1mmm0010 "stc Rm_BANK,Rn"
00000000: 0E B2 stc r3_bank,r14
00000000: 01 C2 stc r4_bank,r1
00000000: 03 C2 stc r4_bank,r3
00000000: 03 E2 stc r6_bank,r3
FFFFFFFC: 03 92 stc r1_bank,r3
FFFFFFFC: 05 A2 stc r2_bank,r5
FFFFFFFC: 0D B2 stc r3_bank,r13
FFFFFFFC: 0A B2 stc r3_bank,r10
00400462: 0F F2 stc r7_bank,r15
00400462: 09 82 stc r0_bank,r9
00400462: 0B F2 stc r7_bank,r11
00400462: 04 E2 stc r6_bank,r4
00001234: 05 F2 stc r7_bank,r5
00001234: 0B A2 stc r2_bank,r11
00001234: 0D A2 stc r2_bank,r13
00001234: 08 F2 stc r7_bank,r8
00008000: 06 E2 stc r6_bank,r6
00008000: 03 D2 stc r5_bank,r3
00008000: 0E E2 stc r6_bank,r14
00008000: 02 B2 stc r3_bank,r2
# 0100nnnn1mmm0011 "stc.l Rm_BANK,@-Rn"
00000000: 46 E3 stc.l r6_bank,@-r6
00000000: 4D 83 stc.l r0_bank,@-r13
00000000: 46 D3 stc.l r5_bank,@-r6
00000000: 4A 93 stc.l r1_bank,@-r10
FFFFFFFC: 42 B3 stc.l r3_bank,@-r2
FFFFFFFC: 44 93 stc.l r1_bank,@-r4
FFFFFFFC: 42 93 stc.l r1_bank,@-r2
FFFFFFFC: 41 B3 stc.l r3_bank,@-r1
00400462: 48 83 stc.l r0_bank,@-r8
00400462: 49 F3 stc.l r7_bank,@-r9
00400462: 4D 93 stc.l r1_bank,@-r13
00400462: 4B B3 stc.l r3_bank,@-r11
00001234: 4E C3 stc.l r4_bank,@-r14
00001234: 48 F3 stc.l r7_bank,@-r8
00001234: 4B 93 stc.l r1_bank,@-r11
00001234: 40 A3 stc.l r2_bank,@-r0
00008000: 47 B3 stc.l r3_bank,@-r7
00008000: 46 B3 stc.l r3_bank,@-r6
00008000: 40 E3 stc.l r6_bank,@-r0
00008000: 47 A3 stc.l r2_bank,@-r7
# 0000nnnn00001010 "sts MACH,Rn"
00000000: 09 0A sts mach,r9
00000000: 0C 0A sts mach,r12
00000000: 0D 0A sts mach,r13
00000000: 0B 0A sts mach,r11
FFFFFFFC: 06 0A sts mach,r6
FFFFFFFC: 08 0A sts mach,r8
FFFFFFFC: 0F 0A sts mach,r15
FFFFFFFC: 02 0A sts mach,r2
00400462: 0C 0A sts mach,r12
00400462: 02 0A sts mach,r2
00400462: 08 0A sts mach,r8
00400462: 0D 0A sts mach,r13
00001234: 0C 0A sts mach,r12
00001234: 08 0A sts mach,r8
00001234: 06 0A sts mach,r6
00001234: 01 0A sts mach,r1
00008000: 01 0A sts mach,r1
00008000: 0B 0A sts mach,r11
00008000: 0A 0A sts mach,r10
00008000: 0C 0A sts mach,r12
# 0100nnnn00000010 "sts.l MACH,@-Rn"
00000000: 43 02 sts.l mach,@-r3
00000000: 45 02 sts.l mach,@-r5
00000000: 4B 02 sts.l mach,@-r11
00000000: 46 02 sts.l mach,@-r6
FFFFFFFC: 4C 02 sts.l mach,@-r12
FFFFFFFC: 4D 02 sts.l mach,@-r13
FFFFFFFC: 4A 02 sts.l mach,@-r10
FFFFFFFC: 43 02 sts.l mach,@-r3
00400462: 47 02 sts.l mach,@-r7
00400462: 46 02 sts.l mach,@-r6
00400462: 42 02 sts.l mach,@-r2
00400462: 49 02 sts.l mach,@-r9
00001234: 41 02 sts.l mach,@-r1
00001234: 42 02 sts.l mach,@-r2
00001234: 4A 02 sts.l mach,@-r10
00001234: 49 02 sts.l mach,@-r9
00008000: 4D 02 sts.l mach,@-r13
00008000: 41 02 sts.l mach,@-r1
00008000: 40 02 sts.l mach,@-r0
00008000: 44 02 sts.l mach,@-r4
# 0000nnnn00011010 "sts MACL,Rn"
00000000: 08 1A sts macl,r8
00000000: 0F 1A sts macl,r15
00000000: 07 1A sts macl,r7
00000000: 01 1A sts macl,r1
FFFFFFFC: 0F 1A sts macl,r15
FFFFFFFC: 01 1A sts macl,r1
FFFFFFFC: 02 1A sts macl,r2
FFFFFFFC: 0B 1A sts macl,r11
00400462: 08 1A sts macl,r8
00400462: 01 1A sts macl,r1
00400462: 06 1A sts macl,r6
00400462: 00 1A sts macl,r0
00001234: 0F 1A sts macl,r15
00001234: 09 1A sts macl,r9
00001234: 0C 1A sts macl,r12
00001234: 04 1A sts macl,r4
00008000: 03 1A sts macl,r3
00008000: 09 1A sts macl,r9
00008000: 08 1A sts macl,r8
00008000: 02 1A sts macl,r2
# 0100nnnn00010010 "sts.l MACL,@-Rn"
00000000: 44 12 sts.l macl,@-r4
00000000: 4C 12 sts.l macl,@-r12
00000000: 42 12 sts.l macl,@-r2
00000000: 4B 12 sts.l macl,@-r11
FFFFFFFC: 4E 12 sts.l macl,@-r14
FFFFFFFC: 4F 12 sts.l macl,@-r15
FFFFFFFC: 40 12 sts.l macl,@-r0
FFFFFFFC: 45 12 sts.l macl,@-r5
00400462: 45 12 sts.l macl,@-r5
00400462: 48 12 sts.l macl,@-r8
00400462: 4C 12 sts.l macl,@-r12
00400462: 4E 12 sts.l macl,@-r14
00001234: 4D 12 sts.l macl,@-r13
00001234: 44 12 sts.l macl,@-r4
00001234: 46 12 sts.l macl,@-r6
00001234: 4C 12 sts.l macl,@-r12
00008000: 4C 12 sts.l macl,@-r12
00008000: 43 12 sts.l macl,@-r3
00008000: 49 12 sts.l macl,@-r9
00008000: 40 12 sts.l macl,@-r0
# 0000nnnn00101010 "sts PR,Rn"
00000000: 04 2A sts pr,r4
00000000: 09 2A sts pr,r9
00000000: 02 2A sts pr,r2
00000000: 00 2A sts pr,r0
FFFFFFFC: 05 2A sts pr,r5
FFFFFFFC: 00 2A sts pr,r0
FFFFFFFC: 04 2A sts pr,r4
FFFFFFFC: 0F 2A sts pr,r15
00400462: 0A 2A sts pr,r10
00400462: 03 2A sts pr,r3
00400462: 0E 2A sts pr,r14
00400462: 08 2A sts pr,r8
00001234: 05 2A sts pr,r5
00001234: 07 2A sts pr,r7
00001234: 0B 2A sts pr,r11
00001234: 0F 2A sts pr,r15
00008000: 06 2A sts pr,r6
00008000: 00 2A sts pr,r0
00008000: 01 2A sts pr,r1
00008000: 09 2A sts pr,r9
# 0100nnnn00100010 "sts.l PR,@-Rn"
00000000: 4B 22 sts.l pr,@-r11
00000000: 4F 22 sts.l pr,@-r15
00000000: 4D 22 sts.l pr,@-r13
00000000: 42 22 sts.l pr,@-r2
FFFFFFFC: 43 22 sts.l pr,@-r3
FFFFFFFC: 45 22 sts.l pr,@-r5
FFFFFFFC: 4E 22 sts.l pr,@-r14
FFFFFFFC: 4B 22 sts.l pr,@-r11
00400462: 44 22 sts.l pr,@-r4
00400462: 43 22 sts.l pr,@-r3
00400462: 4A 22 sts.l pr,@-r10
00400462: 4C 22 sts.l pr,@-r12
00001234: 45 22 sts.l pr,@-r5
00001234: 46 22 sts.l pr,@-r6
00001234: 4E 22 sts.l pr,@-r14
00001234: 4D 22 sts.l pr,@-r13
00008000: 40 22 sts.l pr,@-r0
00008000: 4E 22 sts.l pr,@-r14
00008000: 44 22 sts.l pr,@-r4
00008000: 47 22 sts.l pr,@-r7
# 11000011iiiiiiii "trapa #imm"
00000000: C3 71 trapa #113
00000000: C3 57 trapa #87
00000000: C3 7C trapa #124
00000000: C3 8A trapa #-118
FFFFFFFC: C3 65 trapa #101
FFFFFFFC: C3 BD trapa #-67
FFFFFFFC: C3 42 trapa #66
FFFFFFFC: C3 0C trapa #12
00400462: C3 0F trapa #15
00400462: C3 8F trapa #-113
00400462: C3 E8 trapa #-24
00400462: C3 B7 trapa #-73
00001234: C3 E1 trapa #-31
00001234: C3 57 trapa #87
00001234: C3 43 trapa #67
00001234: C3 1B trapa #27
00008000: C3 B5 trapa #-75
00008000: C3 D7 trapa #-41
00008000: C3 46 trapa #70
00008000: C3 02 trapa #2
# 1111nnnnmmmm1100 "fmov FRm,FRn"
00000000: FE 4C fmov fr4,fr14
00000000: FD 5C fmov fr5,fr13
00000000: F3 3C fmov fr3,fr3
00000000: FD DC fmov fr13,fr13
FFFFFFFC: FA 1C fmov fr1,fr10
FFFFFFFC: FB FC fmov fr15,fr11
FFFFFFFC: F1 5C fmov fr5,fr1
FFFFFFFC: F7 FC fmov fr15,fr7
00400462: FC DC fmov fr13,fr12
00400462: FB 6C fmov fr6,fr11
00400462: F0 DC fmov fr13,fr0
00400462: F5 AC fmov fr10,fr5
00001234: F2 DC fmov fr13,fr2
00001234: FC 2C fmov fr2,fr12
00001234: F9 DC fmov fr13,fr9
00001234: F3 4C fmov fr4,fr3
00008000: FF FC fmov fr15,fr15
00008000: F1 AC fmov fr10,fr1
00008000: F0 6C fmov fr6,fr0
00008000: F4 3C fmov fr3,fr4
# 1111nnnnmmmm1000 "fmov.s @Rm,FRn"
00000000: FF 88 fmov @r8,fr15
00000000: F0 58 fmov @r5,fr0
00000000: F4 48 fmov @r4,fr4
00000000: F3 18 fmov @r1,fr3
FFFFFFFC: FB F8 fmov @r15,fr11
FFFFFFFC: F6 48 fmov @r4,fr6
FFFFFFFC: F6 C8 fmov @r12,fr6
FFFFFFFC: FC B8 fmov @r11,fr12
00400462: F2 E8 fmov @r14,fr2
00400462: FC D8 fmov @r13,fr12
00400462: F8 A8 fmov @r10,fr8
00400462: FC A8 fmov @r10,fr12
00001234: F1 B8 fmov @r11,fr1
00001234: F9 58 fmov @r5,fr9
00001234: F7 68 fmov @r6,fr7
00001234: F0 88 fmov @r8,fr0
00008000: F1 E8 fmov @r14,fr1
00008000: F6 F8 fmov @r15,fr6
00008000: FF 38 fmov @r3,fr15
00008000: F3 D8 fmov @r13,fr3
# 1111nnnnmmmm1010 "fmov.s FRm,@Rn"
00000000: FC FA fmov fr15,@r12
00000000: F2 1A fmov fr1,@r2
00000000: F7 AA fmov fr10,@r7
00000000: F1 7A fmov fr7,@r1
FFFFFFFC: F1 8A fmov fr8,@r1
FFFFFFFC: F8 2A fmov fr2,@r8
FFFFFFFC: F2 3A fmov fr3,@r2
FFFFFFFC: F5 6A fmov fr6,@r5
00400462: FB BA fmov fr11,@r11
00400462: F1 CA fmov fr12,@r1
00400462: F0 FA fmov fr15,@r0
00400462: F4 3A fmov fr3,@r4
00001234: FA 9A fmov fr9,@r10
00001234: FD AA fmov fr10,@r13
00001234: F2 9A fmov fr9,@r2
00001234: F1 3A fmov fr3,@r1
00008000: F8 6A fmov fr6,@r8
00008000: F0 BA fmov fr11,@r0
00008000: F4 EA fmov fr14,@r4
00008000: F5 7A fmov fr7,@r5
# 1111nnnnmmmm1001 "fmov.s @Rm+,FRn"
00000000: FA 89 fmov @r8+,fr10
00000000: F1 19 fmov @r1+,fr1
00000000: F6 69 fmov @r6+,fr6
00000000: F1 B9 fmov @r11+,fr1
FFFFFFFC: F9 F9 fmov @r15+,fr9
FFFFFFFC: FA 69 fmov @r6+,fr10
FFFFFFFC: FA 49 fmov @r4+,fr10
FFFFFFFC: F0 99 fmov @r9+,fr0
00400462: F6 89 fmov @r8+,fr6
00400462: F3 59 fmov @r5+,fr3
00400462: F1 A9 fmov @r10+,fr1
00400462: FC 49 fmov @r4+,fr12
00001234: F7 99 fmov @r9+,fr7
00001234: FF 79 fmov @r7+,fr15
00001234: F3 F9 fmov @r15+,fr3
00001234: F6 89 fmov @r8+,fr6
00008000: FB 59 fmov @r5+,fr11
00008000: FD 59 fmov @r5+,fr13
00008000: F3 E9 fmov @r14+,fr3
00008000: F5 B9 fmov @r11+,fr5
# 1111nnnnmmmm1011 "fmov.s FRm,@-Rn"
00000000: F4 0B fmov fr0,@-r4
00000000: F5 7B fmov fr7,@-r5
00000000: FB 9B fmov fr9,@-r11
00000000: FC 3B fmov fr3,@-r12
FFFFFFFC: F9 8B fmov fr8,@-r9
FFFFFFFC: FF CB fmov fr12,@-r15
FFFFFFFC: FD 8B fmov fr8,@-r13
FFFFFFFC: FA 4B fmov fr4,@-r10
00400462: F5 2B fmov fr2,@-r5
00400462: F0 BB fmov fr11,@-r0
00400462: F1 6B fmov fr6,@-r1
00400462: F4 4B fmov fr4,@-r4
00001234: F8 8B fmov fr8,@-r8
00001234: FE 1B fmov fr1,@-r14
00001234: F8 AB fmov fr10,@-r8
00001234: F8 0B fmov fr0,@-r8
00008000: FC BB fmov fr11,@-r12
00008000: F6 FB fmov fr15,@-r6
00008000: F6 7B fmov fr7,@-r6
00008000: F1 8B fmov fr8,@-r1
# 1111nnnnmmmm0110 "fmov.s @(R0,Rm),FRn"
00000000: F6 06 fmov @(r0,r0),fr6
00000000: F3 66 fmov @(r0,r6),fr3
00000000: FF 26 fmov @(r0,r2),fr15
00000000: F3 26 fmov @(r0,r2),fr3
FFFFFFFC: F6 F6 fmov @(r0,r15),fr6
FFFFFFFC: F0 86 fmov @(r0,r8),fr0
FFFFFFFC: FA B6 fmov @(r0,r11),fr10
FFFFFFFC: FF 86 fmov @(r0,r8),fr15
00400462: F4 66 fmov @(r0,r6),fr4
00400462: F5 46 fmov @(r0,r4),fr5
00400462: F7 66 fmov @(r0,r6),fr7
00400462: F6 D6 fmov @(r0,r13),fr6
00001234: FD 26 fmov @(r0,r2),fr13
00001234: FD F6 fmov @(r0,r15),fr13
00001234: F3 56 fmov @(r0,r5),fr3
00001234: FD 96 fmov @(r0,r9),fr13
00008000: F2 C6 fmov @(r0,r12),fr2
00008000: FD 76 fmov @(r0,r7),fr13
00008000: FD F6 fmov @(r0,r15),fr13
00008000: FE 26 fmov @(r0,r2),fr14
# 1111nnnnmmmm0111 "fmov.s FRm,@(R0,Rn)"
00000000: FD 17 fmov fr1,@(r0,r13)
00000000: F3 47 fmov fr4,@(r0,r3)
00000000: FA 27 fmov fr2,@(r0,r10)
00000000: F1 77 fmov fr7,@(r0,r1)
FFFFFFFC: FD 47 fmov fr4,@(r0,r13)
FFFFFFFC: FC 97 fmov fr9,@(r0,r12)
FFFFFFFC: F5 47 fmov fr4,@(r0,r5)
FFFFFFFC: F5 D7 fmov fr13,@(r0,r5)
00400462: F5 27 fmov fr2,@(r0,r5)
00400462: F3 C7 fmov fr12,@(r0,r3)
00400462: F0 87 fmov fr8,@(r0,r0)
00400462: F8 17 fmov fr1,@(r0,r8)
00001234: F4 57 fmov fr5,@(r0,r4)
00001234: FF E7 fmov fr14,@(r0,r15)
00001234: F4 B7 fmov fr11,@(r0,r4)
00001234: F9 47 fmov fr4,@(r0,r9)
00008000: FA F7 fmov fr15,@(r0,r10)
00008000: F1 D7 fmov fr13,@(r0,r1)
00008000: F1 27 fmov fr2,@(r0,r1)
00008000: F5 D7 fmov fr13,@(r0,r5)
# 1111nnn0mmm01100 "fmov DRm,DRn"
00000000: FE AC fmov fr10,fr14
00000000: FA 2C fmov fr2,fr10
00000000: F4 0C fmov fr0,fr4
00000000: F2 0C fmov fr0,fr2
FFFFFFFC: FC CC fmov fr12,fr12
FFFFFFFC: F6 AC fmov fr10,fr6
FFFFFFFC: F4 2C fmov fr2,fr4
FFFFFFFC: F6 8C fmov fr8,fr6
00400462: F0 8C fmov fr8,fr0
00400462: FA 8C fmov fr8,fr10
00400462: FC 0C fmov fr0,fr12
00400462: FA 6C fmov fr6,fr10
00001234: FA 2C fmov fr2,fr10
00001234: F4 4C fmov fr4,fr4
00001234: F0 8C fmov fr8,fr0
00001234: F0 6C fmov fr6,fr0
00008000: F4 4C fmov fr4,fr4
00008000: FA 0C fmov fr0,fr10
00008000: F0 8C fmov fr8,fr0
00008000: F6 6C fmov fr6,fr6
# 1111nnn1mmm01100 "fmov DRm,XDn"
00000000: FD AC fmov fr10,fr13
00000000: F3 4C fmov fr4,fr3
00000000: F3 AC fmov fr10,fr3
00000000: F7 6C fmov fr6,fr7
FFFFFFFC: F7 4C fmov fr4,fr7
FFFFFFFC: F7 6C fmov fr6,fr7
FFFFFFFC: FB 2C fmov fr2,fr11
FFFFFFFC: F7 AC fmov fr10,fr7
00400462: FD 6C fmov fr6,fr13
00400462: F9 EC fmov fr14,fr9
00400462: FF 2C fmov fr2,fr15
00400462: F3 AC fmov fr10,fr3
00001234: FF EC fmov fr14,fr15
00001234: FF 2C fmov fr2,fr15
00001234: FB EC fmov fr14,fr11
00001234: F9 EC fmov fr14,fr9
00008000: F7 4C fmov fr4,fr7
00008000: FD 8C fmov fr8,fr13
00008000: FB 6C fmov fr6,fr11
00008000: FD 0C fmov fr0,fr13
# 1111nnn0mmm11100 "fmov XDm,DRn"
00000000: FE BC fmov fr11,fr14
00000000: F6 BC fmov fr11,fr6
00000000: FE 1C fmov fr1,fr14
00000000: F4 7C fmov fr7,fr4
FFFFFFFC: F0 9C fmov fr9,fr0
FFFFFFFC: FC 1C fmov fr1,fr12
FFFFFFFC: F8 1C fmov fr1,fr8
FFFFFFFC: F8 7C fmov fr7,fr8
00400462: F0 5C fmov fr5,fr0
00400462: FC 7C fmov fr7,fr12
00400462: F4 5C fmov fr5,fr4
00400462: FC 3C fmov fr3,fr12
00001234: F0 DC fmov fr13,fr0
00001234: F0 1C fmov fr1,fr0
00001234: F0 BC fmov fr11,fr0
00001234: FC BC fmov fr11,fr12
00008000: F6 DC fmov fr13,fr6
00008000: F8 DC fmov fr13,fr8
00008000: F6 1C fmov fr1,fr6
00008000: FC FC fmov fr15,fr12
# 1111nnn1mmm11100 "fmov XDm,XDn"
00000000: FF 9C fmov fr9,fr15
00000000: F7 9C fmov fr9,fr7
00000000: FD FC fmov fr15,fr13
00000000: FD DC fmov fr13,fr13
FFFFFFFC: FF 3C fmov fr3,fr15
FFFFFFFC: F3 FC fmov fr15,fr3
FFFFFFFC: F7 1C fmov fr1,fr7
FFFFFFFC: F1 5C fmov fr5,fr1
00400462: F3 FC fmov fr15,fr3
00400462: F1 1C fmov fr1,fr1
00400462: F7 5C fmov fr5,fr7
00400462: F1 DC fmov fr13,fr1
00001234: FF DC fmov fr13,fr15
00001234: FF 9C fmov fr9,fr15
00001234: FD 3C fmov fr3,fr13
00001234: FB DC fmov fr13,fr11
00008000: FF 3C fmov fr3,fr15
00008000: F3 1C fmov fr1,fr3
00008000: FD 1C fmov fr1,fr13
00008000: F5 7C fmov fr7,fr5
# 1111nnn0mmmm1000 "fmov.d @Rm,DRn"
00000000: F4 98 fmov @r9,fr4
00000000: F8 D8 fmov @r13,fr8
00000000: FE 58 fmov @r5,fr14
00000000: F0 B8 fmov @r11,fr0
FFFFFFFC: F8 98 fmov @r9,fr8
FFFFFFFC: FE A8 fmov @r10,fr14
FFFFFFFC: FA 08 fmov @r0,fr10
FFFFFFFC: F8 D8 fmov @r13,fr8
00400462: FE F8 fmov @r15,fr14
00400462: FA B8 fmov @r11,fr10
00400462: F4 B8 fmov @r11,fr4
00400462: F6 78 fmov @r7,fr6
00001234: FC 38 fmov @r3,fr12
00001234: F2 F8 fmov @r15,fr2
00001234: FC 08 fmov @r0,fr12
00001234: FE 98 fmov @r9,fr14
00008000: F0 48 fmov @r4,fr0
00008000: F0 B8 fmov @r11,fr0
00008000: F6 78 fmov @r7,fr6
00008000: F8 38 fmov @r3,fr8
# 1111nnn1mmmm1000 "fmov.d @Rm,XDn"
00000000: F5 A8 fmov @r10,fr5
00000000: FD F8 fmov @r15,fr13
00000000: F7 68 fmov @r6,fr7
00000000: F7 38 fmov @r3,fr7
FFFFFFFC: F3 48 fmov @r4,fr3
FFFFFFFC: F9 68 fmov @r6,fr9
FFFFFFFC: F3 28 fmov @r2,fr3
FFFFFFFC: F7 78 fmov @r7,fr7
00400462: FF 58 fmov @r5,fr15
00400462: FB 28 fmov @r2,fr11
00400462: F7 C8 fmov @r12,fr7
00400462: F5 18 fmov @r1,fr5
00001234: FF 68 fmov @r6,fr15
00001234: F7 C8 fmov @r12,fr7
00001234: FF F8 fmov @r15,fr15
00001234: FF 08 fmov @r0,fr15
00008000: F7 98 fmov @r9,fr7
00008000: F5 E8 fmov @r14,fr5
00008000: FD 18 fmov @r1,fr13
00008000: F1 18 fmov @r1,fr1
# 1111nnnnmmm01010 "fmov.d DRm,@Rn"
00000000: F1 6A fmov fr6,@r1
00000000: F0 8A fmov fr8,@r0
00000000: FA 4A fmov fr4,@r10
00000000: F5 CA fmov fr12,@r5
FFFFFFFC: F7 EA fmov fr14,@r7
FFFFFFFC: FA 4A fmov fr4,@r10
FFFFFFFC: F6 8A fmov fr8,@r6
FFFFFFFC: FE 6A fmov fr6,@r14
00400462: F3 2A fmov fr2,@r3
00400462: F3 0A fmov fr0,@r3
00400462: F0 4A fmov fr4,@r0
00400462: FA 4A fmov fr4,@r10
00001234: F6 6A fmov fr6,@r6
00001234: FE 2A fmov fr2,@r14
00001234: FE EA fmov fr14,@r14
00001234: F6 8A fmov fr8,@r6
00008000: F8 CA fmov fr12,@r8
00008000: FD 4A fmov fr4,@r13
00008000: FE EA fmov fr14,@r14
00008000: FB CA fmov fr12,@r11
# 1111nnnnmmm11010 "fmov.d XDm,@Rn"
00000000: FB 9A fmov fr9,@r11
00000000: FC 7A fmov fr7,@r12
00000000: F7 FA fmov fr15,@r7
00000000: F2 FA fmov fr15,@r2
FFFFFFFC: FC BA fmov fr11,@r12
FFFFFFFC: F3 BA fmov fr11,@r3
FFFFFFFC: F4 5A fmov fr5,@r4
FFFFFFFC: FA 3A fmov fr3,@r10
00400462: FE DA fmov fr13,@r14
00400462: F9 7A fmov fr7,@r9
00400462: F2 BA fmov fr11,@r2
00400462: FE 1A fmov fr1,@r14
00001234: F5 7A fmov fr7,@r5
00001234: FB FA fmov fr15,@r11
00001234: F0 7A fmov fr7,@r0
00001234: FC DA fmov fr13,@r12
00008000: FB 9A fmov fr9,@r11
00008000: F6 BA fmov fr11,@r6
00008000: F7 DA fmov fr13,@r7
00008000: F6 DA fmov fr13,@r6
# 1111nnn0mmmm1001 "fmov.d @Rm+,DRn"
00000000: FA 99 fmov @r9+,fr10
00000000: F2 E9 fmov @r14+,fr2
00000000: FA 49 fmov @r4+,fr10
00000000: F0 89 fmov @r8+,fr0
FFFFFFFC: FC 29 fmov @r2+,fr12
FFFFFFFC: FE 59 fmov @r5+,fr14
FFFFFFFC: FA 09 fmov @r0+,fr10
FFFFFFFC: F0 79 fmov @r7+,fr0
00400462: FE E9 fmov @r14+,fr14
00400462: F2 A9 fmov @r10+,fr2
00400462: F8 D9 fmov @r13+,fr8
00400462: F0 D9 fmov @r13+,fr0
00001234: F0 29 fmov @r2+,fr0
00001234: F6 19 fmov @r1+,fr6
00001234: F6 A9 fmov @r10+,fr6
00001234: F4 09 fmov @r0+,fr4
00008000: F8 69 fmov @r6+,fr8
00008000: F0 99 fmov @r9+,fr0
00008000: F8 B9 fmov @r11+,fr8
00008000: FA 09 fmov @r0+,fr10
# 1111nnn1mmmm1001 "fmov.d @Rm+,XDn"
00000000: F7 29 fmov @r2+,fr7
00000000: F7 99 fmov @r9+,fr7
00000000: F9 89 fmov @r8+,fr9
00000000: FD 59 fmov @r5+,fr13
FFFFFFFC: F5 19 fmov @r1+,fr5
FFFFFFFC: F1 C9 fmov @r12+,fr1
FFFFFFFC: F5 69 fmov @r6+,fr5
FFFFFFFC: F1 09 fmov @r0+,fr1
00400462: FD 29 fmov @r2+,fr13
00400462: F1 F9 fmov @r15+,fr1
00400462: FD E9 fmov @r14+,fr13
00400462: F9 79 fmov @r7+,fr9
00001234: F3 89 fmov @r8+,fr3
00001234: F3 99 fmov @r9+,fr3
00001234: FB 99 fmov @r9+,fr11
00001234: F3 B9 fmov @r11+,fr3
00008000: F5 59 fmov @r5+,fr5
00008000: F1 59 fmov @r5+,fr1
00008000: F7 79 fmov @r7+,fr7
00008000: F5 C9 fmov @r12+,fr5
# 1111nnnnmmm01011 "fmov.d DRm,@-Rn"
00000000: F2 EB fmov fr14,@-r2
00000000: FB EB fmov fr14,@-r11
00000000: FA 2B fmov fr2,@-r10
00000000: FE AB fmov fr10,@-r14
FFFFFFFC: F7 CB fmov fr12,@-r7
FFFFFFFC: F5 4B fmov fr4,@-r5
FFFFFFFC: F5 0B fmov fr0,@-r5
FFFFFFFC: F1 2B fmov fr2,@-r1
00400462: FE 8B fmov fr8,@-r14
00400462: F3 6B fmov fr6,@-r3
00400462: FD 8B fmov fr8,@-r13
00400462: F1 CB fmov fr12,@-r1
00001234: F4 AB fmov fr10,@-r4
00001234: F7 0B fmov fr0,@-r7
00001234: F2 6B fmov fr6,@-r2
00001234: F4 EB fmov fr14,@-r4
00008000: FB CB fmov fr12,@-r11
00008000: F6 4B fmov fr4,@-r6
00008000: F5 EB fmov fr14,@-r5
00008000: F3 2B fmov fr2,@-r3
# 1111nnnnmmm11011 "fmov.d XDm,@-Rn"
00000000: FD 7B fmov fr7,@-r13
00000000: F5 DB fmov fr13,@-r5
00000000: FA 9B fmov fr9,@-r10
00000000: F9 FB fmov fr15,@-r9
FFFFFFFC: FF DB fmov fr13,@-r15
FFFFFFFC: F2 3B fmov fr3,@-r2
FFFFFFFC: F0 1B fmov fr1,@-r0
FFFFFFFC: F4 FB fmov fr15,@-r4
00400462: FB 3B fmov fr3,@-r11
00400462: F7 5B fmov fr5,@-r7
00400462: F6 9B fmov fr9,@-r6
00400462: FD FB fmov fr15,@-r13
00001234: F9 5B fmov fr5,@-r9
00001234: F4 3B fmov fr3,@-r4
00001234: F1 1B fmov fr1,@-r1
00001234: F5 BB fmov fr11,@-r5
00008000: FD 9B fmov fr9,@-r13
00008000: FD DB fmov fr13,@-r13
00008000: FE 3B fmov fr3,@-r14
00008000: F0 DB fmov fr13,@-r0
# 1111nnn0mmmm0110 "fmov.d @(R0,Rm),DRn"
00000000: F6 46 fmov @(r0,r4),fr6
00000000: FE F6 fmov @(r0,r15),fr14
00000000: F0 D6 fmov @(r0,r13),fr0
00000000: F2 26 fmov @(r0,r2),fr2
FFFFFFFC: F6 56 fmov @(r0,r5),fr6
FFFFFFFC: F4 56 fmov @(r0,r5),fr4
FFFFFFFC: FA A6 fmov @(r0,r10),fr10
FFFFFFFC: F2 06 fmov @(r0,r0),fr2
00400462: FE E6 fmov @(r0,r14),fr14
00400462: F6 16 fmov @(r0,r1),fr6
00400462: FC 66 fmov @(r0,r6),fr12
00400462: FE 26 fmov @(r0,r2),fr14
00001234: F8 66 fmov @(r0,r6),fr8
00001234: F6 86 fmov @(r0,r8),fr6
00001234: FC B6 fmov @(r0,r11),fr12
00001234: F6 26 fmov @(r0,r2),fr6
00008000: F4 06 fmov @(r0,r0),fr4
00008000: F6 16 fmov @(r0,r1),fr6
00008000: F0 46 fmov @(r0,r4),fr0
00008000: FA 66 fmov @(r0,r6),fr10
# 1111nnn1mmmm0110 "fmov.d @(R0,Rm),XDn"
00000000: FB E6 fmov @(r0,r14),fr11
00000000: F5 E6 fmov @(r0,r14),fr5
00000000: FF 66 fmov @(r0,r6),fr15
00000000: FF B6 fmov @(r0,r11),fr15
FFFFFFFC: F1 06 fmov @(r0,r0),fr1
FFFFFFFC: FB 16 fmov @(r0,r1),fr11
FFFFFFFC: F1 26 fmov @(r0,r2),fr1
FFFFFFFC: F1 76 fmov @(r0,r7),fr1
00400462: F1 A6 fmov @(r0,r10),fr1
00400462: F9 96 fmov @(r0,r9),fr9
00400462: FF 26 fmov @(r0,r2),fr15
00400462: FD F6 fmov @(r0,r15),fr13
00001234: F3 A6 fmov @(r0,r10),fr3
00001234: F3 56 fmov @(r0,r5),fr3
00001234: FB 86 fmov @(r0,r8),fr11
00001234: F9 46 fmov @(r0,r4),fr9
00008000: FB 26 fmov @(r0,r2),fr11
00008000: F5 A6 fmov @(r0,r10),fr5
00008000: FF 26 fmov @(r0,r2),fr15
00008000: F7 D6 fmov @(r0,r13),fr7
# 1111nnnnmmm00111 "fmov.d DRm,@(R0,Rn)"
00000000: F1 67 fmov fr6,@(r0,r1)
00000000: FE 47 fmov fr4,@(r0,r14)
00000000: FF C7 fmov fr12,@(r0,r15)
00000000: F3 07 fmov fr0,@(r0,r3)
FFFFFFFC: F4 27 fmov fr2,@(r0,r4)
FFFFFFFC: FB 87 fmov fr8,@(r0,r11)
FFFFFFFC: FC C7 fmov fr12,@(r0,r12)
FFFFFFFC: F7 E7 fmov fr14,@(r0,r7)
00400462: F7 E7 fmov fr14,@(r0,r7)
00400462: F2 07 fmov fr0,@(r0,r2)
00400462: F8 47 fmov fr4,@(r0,r8)
00400462: F0 27 fmov fr2,@(r0,r0)
00001234: F7 07 fmov fr0,@(r0,r7)
00001234: F4 87 fmov fr8,@(r0,r4)
00001234: F9 E7 fmov fr14,@(r0,r9)
00001234: FB A7 fmov fr10,@(r0,r11)
00008000: F4 47 fmov fr4,@(r0,r4)
00008000: F9 87 fmov fr8,@(r0,r9)
00008000: FD A7 fmov fr10,@(r0,r13)
00008000: F1 07 fmov fr0,@(r0,r1)
# 1111nnnnmmm10111 "fmov.d XDm,@(R0,Rn)"
00000000: F5 77 fmov fr7,@(r0,r5)
00000000: F9 37 fmov fr3,@(r0,r9)
00000000: F1 57 fmov fr5,@(r0,r1)
00000000: FF D7 fmov fr13,@(r0,r15)
FFFFFFFC: F6 F7 fmov fr15,@(r0,r6)
FFFFFFFC: FF F7 fmov fr15,@(r0,r15)
FFFFFFFC: FD D7 fmov fr13,@(r0,r13)
FFFFFFFC: F0 97 fmov fr9,@(r0,r0)
00400462: FB B7 fmov fr11,@(r0,r11)
00400462: F1 37 fmov fr3,@(r0,r1)
00400462: F3 57 fmov fr5,@(r0,r3)
00400462: F0 D7 fmov fr13,@(r0,r0)
00001234: F3 77 fmov fr7,@(r0,r3)
00001234: FB 37 fmov fr3,@(r0,r11)
00001234: F6 57 fmov fr5,@(r0,r6)
00001234: F4 97 fmov fr9,@(r0,r4)
00008000: F9 B7 fmov fr11,@(r0,r9)
00008000: F3 D7 fmov fr13,@(r0,r3)
00008000: FF B7 fmov fr11,@(r0,r15)
00008000: F0 F7 fmov fr15,@(r0,r0)
# 1111nnnn10001101 "fldi0 FRn"
00000000: FF 8D fldi0 fr15
00000000: FA 8D fldi0 fr10
00000000: FE 8D fldi0 fr14
00000000: F0 8D fldi0 fr0
FFFFFFFC: F5 8D fldi0 fr5
FFFFFFFC: F4 8D fldi0 fr4
FFFFFFFC: FF 8D fldi0 fr15
FFFFFFFC: F6 8D fldi0 fr6
00400462: F5 8D fldi0 fr5
00400462: F2 8D fldi0 fr2
00400462: F7 8D fldi0 fr7
00400462: F0 8D fldi0 fr0
00001234: FD 8D fldi0 fr13
00001234: F1 8D fldi0 fr1
00001234: F5 8D fldi0 fr5
00001234: F6 8D fldi0 fr6
00008000: F6 8D fldi0 fr6
00008000: F9 8D fldi0 fr9
00008000: FF 8D fldi0 fr15
00008000: FD 8D fldi0 fr13
# 1111nnnn10011101 "fldi1 FRn"
00000000: F6 9D fldi1 fr6
00000000: F9 9D fldi1 fr9
00000000: F0 9D fldi1 fr0
00000000: FD 9D fldi1 fr13
FFFFFFFC: F1 9D fldi1 fr1
FFFFFFFC: FB 9D fldi1 fr11
FFFFFFFC: F4 9D fldi1 fr4
FFFFFFFC: FC 9D fldi1 fr12
00400462: F1 9D fldi1 fr1
00400462: F7 9D fldi1 fr7
00400462: FC 9D fldi1 fr12
00400462: F4 9D fldi1 fr4
00001234: FE 9D fldi1 fr14
00001234: FD 9D fldi1 fr13
00001234: F7 9D fldi1 fr7
00001234: F8 9D fldi1 fr8
00008000: F9 9D fldi1 fr9
00008000: FE 9D fldi1 fr14
00008000: F5 9D fldi1 fr5
00008000: F8 9D fldi1 fr8
# 1111mmmm00011101 "flds FRm,FPUL"
00000000: FF 1D flds fr15,fpul
00000000: F7 1D flds fr7,fpul
00000000: F3 1D flds fr3,fpul
00000000: F4 1D flds fr4,fpul
FFFFFFFC: F6 1D flds fr6,fpul
FFFFFFFC: F7 1D flds fr7,fpul
FFFFFFFC: F0 1D flds fr0,fpul
FFFFFFFC: F9 1D flds fr9,fpul
00400462: FE 1D flds fr14,fpul
00400462: F5 1D flds fr5,fpul
00400462: FB 1D flds fr11,fpul
00400462: F8 1D flds fr8,fpul
00001234: F2 1D flds fr2,fpul
00001234: F5 1D flds fr5,fpul
00001234: F4 1D flds fr4,fpul
00001234: FE 1D flds fr14,fpul
00008000: F9 1D flds fr9,fpul
00008000: F4 1D flds fr4,fpul
00008000: FC 1D flds fr12,fpul
00008000: F8 1D flds fr8,fpul
# 1111nnnn00001101 "fsts FPUL,FRn"
00000000: FF 0D fsts fpul,fr15
00000000: F4 0D fsts fpul,fr4
00000000: F2 0D fsts fpul,fr2
00000000: F9 0D fsts fpul,fr9
FFFFFFFC: FC 0D fsts fpul,fr12
FFFFFFFC: F1 0D fsts fpul,fr1
FFFFFFFC: FE 0D fsts fpul,fr14
FFFFFFFC: FA 0D fsts fpul,fr10
00400462: FA 0D fsts fpul,fr10
00400462: F0 0D fsts fpul,fr0
00400462: FB 0D fsts fpul,fr11
00400462: F3 0D fsts fpul,fr3
00001234: F4 0D fsts fpul,fr4
00001234: F8 0D fsts fpul,fr8
00001234: F3 0D fsts fpul,fr3
00001234: F5 0D fsts fpul,fr5
00008000: F3 0D fsts fpul,fr3
00008000: F4 0D fsts fpul,fr4
00008000: F5 0D fsts fpul,fr5
00008000: F6 0D fsts fpul,fr6
# 1111nnnn01011101 "fabs FRn"
00000000: F8 5D fabs fr8
00000000: F4 5D fabs fr4
00000000: F9 5D fabs fr9
00000000: F0 5D fabs fr0
FFFFFFFC: F1 5D fabs fr1
FFFFFFFC: F2 5D fabs fr2
FFFFFFFC: F3 5D fabs fr3
FFFFFFFC: FF 5D fabs fr15
00400462: F2 5D fabs fr2
00400462: F5 5D fabs fr5
00400462: F8 5D fabs fr8
00400462: FC 5D fabs fr12
00001234: F7 5D fabs fr7
00001234: F1 5D fabs fr1
00001234: F3 5D fabs fr3
00001234: F4 5D fabs fr4
00008000: F8 5D fabs fr8
00008000: F0 5D fabs fr0
00008000: FF 5D fabs fr15
00008000: FA 5D fabs fr10
# 1111nnnn01001101 "fneg FRn"
00000000: F3 4D fneg fr3
00000000: FB 4D fneg fr11
00000000: F8 4D fneg fr8
00000000: F9 4D fneg fr9
FFFFFFFC: FC 4D fneg fr12
FFFFFFFC: FD 4D fneg fr13
FFFFFFFC: F8 4D fneg fr8
FFFFFFFC: F4 4D fneg fr4
00400462: F8 4D fneg fr8
00400462: F9 4D fneg fr9
00400462: F4 4D fneg fr4
00400462: FB 4D fneg fr11
00001234: F0 4D fneg fr0
00001234: F7 4D fneg fr7
00001234: F9 4D fneg fr9
00001234: FD 4D fneg fr13
00008000: FE 4D fneg fr14
00008000: F7 4D fneg fr7
00008000: FA 4D fneg fr10
00008000: F8 4D fneg fr8
# 1111nnnnmmmm0000 "fadd FRm,FRn"
00000000: F1 00 fadd fr0,fr1
00000000: F2 10 fadd fr1,fr2
00000000: F6 70 fadd fr7,fr6
00000000: F7 B0 fadd fr11,fr7
FFFFFFFC: F8 70 fadd fr7,fr8
FFFFFFFC: F1 90 fadd fr9,fr1
FFFFFFFC: F4 C0 fadd fr12,fr4
FFFFFFFC: F5 A0 fadd fr10,fr5
00400462: F6 10 fadd fr1,fr6
00400462: F9 D0 fadd fr13,fr9
00400462: F3 E0 fadd fr14,fr3
00400462: F7 C0 fadd fr12,fr7
00001234: F4 10 fadd fr1,fr4
00001234: F7 30 fadd fr3,fr7
00001234: F0 F0 fadd fr15,fr0
00001234: FD F0 fadd fr15,fr13
00008000: FD 60 fadd fr6,fr13
00008000: FD D0 fadd fr13,fr13
00008000: F7 D0 fadd fr13,fr7
00008000: F4 D0 fadd fr13,fr4
# 1111nnnnmmmm0001 "fsub FRm,FRn"
00000000: F9 61 fsub fr6,fr9
00000000: FE F1 fsub fr15,fr14
00000000: F8 41 fsub fr4,fr8
00000000: FB 21 fsub fr2,fr11
FFFFFFFC: F5 D1 fsub fr13,fr5
FFFFFFFC: FD D1 fsub fr13,fr13
FFFFFFFC: FE D1 fsub fr13,fr14
FFFFFFFC: F4 71 fsub fr7,fr4
00400462: FA F1 fsub fr15,fr10
00400462: FD A1 fsub fr10,fr13
00400462: F3 41 fsub fr4,fr3
00400462: F7 21 fsub fr2,fr7
00001234: F7 B1 fsub fr11,fr7
00001234: F9 51 fsub fr5,fr9
00001234: F8 31 fsub fr3,fr8
00001234: FC 81 fsub fr8,fr12
00008000: F4 D1 fsub fr13,fr4
00008000: F6 71 fsub fr7,fr6
00008000: F3 A1 fsub fr10,fr3
00008000: FF 11 fsub fr1,fr15
# 1111nnnnmmmm0010 "fmul FRm,FRn"
00000000: FB E2 fmul fr14,fr11
00000000: FF 22 fmul fr2,fr15
00000000: F5 52 fmul fr5,fr5
00000000: FC B2 fmul fr11,fr12
FFFFFFFC: FF 92 fmul fr9,fr15
FFFFFFFC: F5 42 fmul fr4,fr5
FFFFFFFC: F1 D2 fmul fr13,fr1
FFFFFFFC: F4 82 fmul fr8,fr4
00400462: FF 12 fmul fr1,fr15
00400462: F2 B2 fmul fr11,fr2
00400462: F2 72 fmul fr7,fr2
00400462: F0 42 fmul fr4,fr0
00001234: F5 42 fmul fr4,fr5
00001234: FC 52 fmul fr5,fr12
00001234: F7 A2 fmul fr10,fr7
00001234: FE A2 fmul fr10,fr14
00008000: FD A2 fmul fr10,fr13
00008000: F4 A2 fmul fr10,fr4
00008000: FD 72 fmul fr7,fr13
00008000: F7 02 fmul fr0,fr7
# 1111nnnnmmmm1110 "fmac FR0,FRm,FRn"
00000000: FF EE fmac fr0,fr14,fr15
00000000: FB 6E fmac fr0,fr6,fr11
00000000: FE 7E fmac fr0,fr7,fr14
00000000: F7 8E fmac fr0,fr8,fr7
FFFFFFFC: FB 6E fmac fr0,fr6,fr11
FFFFFFFC: F8 2E fmac fr0,fr2,fr8
FFFFFFFC: FE 9E fmac fr0,fr9,fr14
FFFFFFFC: FA 3E fmac fr0,fr3,fr10
00400462: F0 5E fmac fr0,fr5,fr0
00400462: FE DE fmac fr0,fr13,fr14
00400462: FF 2E fmac fr0,fr2,fr15
00400462: F1 1E fmac fr0,fr1,fr1
00001234: F2 4E fmac fr0,fr4,fr2
00001234: F9 EE fmac fr0,fr14,fr9
00001234: F7 4E fmac fr0,fr4,fr7
00001234: F5 DE fmac fr0,fr13,fr5
00008000: F1 1E fmac fr0,fr1,fr1
00008000: FB CE fmac fr0,fr12,fr11
00008000: F0 8E fmac fr0,fr8,fr0
00008000: F5 5E fmac fr0,fr5,fr5
# 1111nnnnmmmm0011 "fdiv FRm,FRn"
00000000: FC B3 fdiv fr11,fr12
00000000: FA 83 fdiv fr8,fr10
00000000: FC 43 fdiv fr4,fr12
00000000: FC D3 fdiv fr13,fr12
FFFFFFFC: F3 73 fdiv fr7,fr3
FFFFFFFC: F0 73 fdiv fr7,fr0
FFFFFFFC: F8 13 fdiv fr1,fr8
FFFFFFFC: FC D3 fdiv fr13,fr12
00400462: F7 03 fdiv fr0,fr7
00400462: F3 83 fdiv fr8,fr3
00400462: F1 93 fdiv fr9,fr1
00400462: F3 73 fdiv fr7,fr3
00001234: F2 93 fdiv fr9,fr2
00001234: F7 93 fdiv fr9,fr7
00001234: F1 13 fdiv fr1,fr1
00001234: FB F3 fdiv fr15,fr11
00008000: F4 63 fdiv fr6,fr4
00008000: F6 B3 fdiv fr11,fr6
00008000: F4 53 fdiv fr5,fr4
00008000: F7 43 fdiv fr4,fr7
# 1111nnnn01101101 "fsqrt FRn"
00000000: F4 6D fsqrt fr4
00000000: FB 6D fsqrt fr11
00000000: FA 6D fsqrt fr10
00000000: FF 6D fsqrt fr15
FFFFFFFC: FB 6D fsqrt fr11
FFFFFFFC: F7 6D fsqrt fr7
FFFFFFFC: FC 6D fsqrt fr12
FFFFFFFC: F8 6D fsqrt fr8
00400462: FE 6D fsqrt fr14
00400462: F4 6D fsqrt fr4
00400462: FF 6D fsqrt fr15
00400462: FD 6D fsqrt fr13
00001234: F9 6D fsqrt fr9
00001234: F4 6D fsqrt fr4
00001234: F5 6D fsqrt fr5
00001234: F8 6D fsqrt fr8
00008000: FA 6D fsqrt fr10
00008000: FB 6D fsqrt fr11
00008000: F6 6D fsqrt fr6
00008000: FC 6D fsqrt fr12
# 1111nnnnmmmm0100 "fcmp/eq FRm,FRn"
00000000: F2 B4 fcmp/eq fr11,fr2
00000000: FC B4 fcmp/eq fr11,fr12
00000000: FA 64 fcmp/eq fr6,fr10
00000000: FA 14 fcmp/eq fr1,fr10
FFFFFFFC: FC 04 fcmp/eq fr0,fr12
FFFFFFFC: F2 E4 fcmp/eq fr14,fr2
FFFFFFFC: F7 E4 fcmp/eq fr14,fr7
FFFFFFFC: F8 64 fcmp/eq fr6,fr8
00400462: F8 E4 fcmp/eq fr14,fr8
00400462: F4 D4 fcmp/eq fr13,fr4
00400462: F9 74 fcmp/eq fr7,fr9
00400462: FD 74 fcmp/eq fr7,fr13
00001234: FF F4 fcmp/eq fr15,fr15
00001234: F5 24 fcmp/eq fr2,fr5
00001234: F3 C4 fcmp/eq fr12,fr3
00001234: FA 24 fcmp/eq fr2,fr10
00008000: FD 14 fcmp/eq fr1,fr13
00008000: FA E4 fcmp/eq fr14,fr10
00008000: F8 84 fcmp/eq fr8,fr8
00008000: F7 34 fcmp/eq fr3,fr7
# 1111nnnnmmmm0101 "fcmp/gt FRm,FRn"
00000000: F7 75 fcmp/gt fr7,fr7
00000000: FC 05 fcmp/gt fr0,fr12
00000000: FE 95 fcmp/gt fr9,fr14
00000000: F3 45 fcmp/gt fr4,fr3
FFFFFFFC: FA 75 fcmp/gt fr7,fr10
FFFFFFFC: FA 25 fcmp/gt fr2,fr10
FFFFFFFC: FD 25 fcmp/gt fr2,fr13
FFFFFFFC: FB 65 fcmp/gt fr6,fr11
00400462: FF F5 fcmp/gt fr15,fr15
00400462: FD 75 fcmp/gt fr7,fr13
00400462: FC E5 fcmp/gt fr14,fr12
00400462: F5 A5 fcmp/gt fr10,fr5
00001234: F8 E5 fcmp/gt fr14,fr8
00001234: F9 F5 fcmp/gt fr15,fr9
00001234: F5 25 fcmp/gt fr2,fr5
00001234: F4 D5 fcmp/gt fr13,fr4
00008000: F2 B5 fcmp/gt fr11,fr2
00008000: FE C5 fcmp/gt fr12,fr14
00008000: F3 C5 fcmp/gt fr12,fr3
00008000: FE F5 fcmp/gt fr15,fr14
# 1111nnnn00101101 "float FPUL,FRn"
00000000: F8 2D float fpul,fr8
00000000: F7 2D float fpul,fr7
00000000: F9 2D float fpul,fr9
00000000: FE 2D float fpul,fr14
FFFFFFFC: F0 2D float fpul,fr0
FFFFFFFC: F6 2D float fpul,fr6
FFFFFFFC: FA 2D float fpul,fr10
FFFFFFFC: FE 2D float fpul,fr14
00400462: FD 2D float fpul,fr13
00400462: F0 2D float fpul,fr0
00400462: F1 2D float fpul,fr1
00400462: F8 2D float fpul,fr8
00001234: F6 2D float fpul,fr6
00001234: FE 2D float fpul,fr14
00001234: F0 2D float fpul,fr0
00001234: FC 2D float fpul,fr12
00008000: F3 2D float fpul,fr3
00008000: F6 2D float fpul,fr6
00008000: FC 2D float fpul,fr12
00008000: F9 2D float fpul,fr9
# 1111mmmm00111101 "ftrc FRm,FPUL"
00000000: FE 3D ftrc fr14,fpul
00000000: FF 3D ftrc fr15,fpul
00000000: FA 3D ftrc fr10,fpul
00000000: FD 3D ftrc fr13,fpul
FFFFFFFC: F8 3D ftrc fr8,fpul
FFFFFFFC: FD 3D ftrc fr13,fpul
FFFFFFFC: F0 3D ftrc fr0,fpul
FFFFFFFC: FA 3D ftrc fr10,fpul
00400462: F5 3D ftrc fr5,fpul
00400462: FA 3D ftrc fr10,fpul
00400462: F6 3D ftrc fr6,fpul
00400462: FC 3D ftrc fr12,fpul
00001234: F2 3D ftrc fr2,fpul
00001234: F0 3D ftrc fr0,fpul
00001234: FF 3D ftrc fr15,fpul
00001234: F8 3D ftrc fr8,fpul
00008000: F3 3D ftrc fr3,fpul
00008000: FF 3D ftrc fr15,fpul
00008000: F9 3D ftrc fr9,fpul
00008000: FD 3D ftrc fr13,fpul
# 1111nnmm11101101 "fipr FVm,FVn"
00000000: FE ED fipr fv8,fv12
00000000: F5 ED fipr fv4,fv4
00000000: F8 ED fipr fv0,fv8
00000000: FB ED fipr fv12,fv8
FFFFFFFC: F2 ED fipr fv8,fv0
FFFFFFFC: FF ED fipr fv12,fv12
FFFFFFFC: F5 ED fipr fv4,fv4
FFFFFFFC: FA ED fipr fv8,fv8
00400462: F6 ED fipr fv8,fv4
00400462: FB ED fipr fv12,fv8
00400462: FF ED fipr fv12,fv12
00400462: FA ED fipr fv8,fv8
00001234: F4 ED fipr fv0,fv4
00001234: F6 ED fipr fv8,fv4
00001234: F1 ED fipr fv4,fv0
00001234: F9 ED fipr fv4,fv8
00008000: F7 ED fipr fv12,fv4
00008000: F6 ED fipr fv8,fv4
00008000: F9 ED fipr fv4,fv8
00008000: FE ED fipr fv8,fv12
# 1111nn0111111101 "ftrv XMTRX,FVn"
00000000: F9 FD ftrv xmtrx,fv8
00000000: F5 FD ftrv xmtrx,fv4
00000000: FD FD ftrv xmtrx,fv12
00000000: F1 FD ftrv xmtrx,fv0
FFFFFFFC: F9 FD ftrv xmtrx,fv8
FFFFFFFC: FD FD ftrv xmtrx,fv12
FFFFFFFC: F5 FD ftrv xmtrx,fv4
FFFFFFFC: F1 FD ftrv xmtrx,fv0
00400462: FD FD ftrv xmtrx,fv12
00400462: F5 FD ftrv xmtrx,fv4
00400462: F1 FD ftrv xmtrx,fv0
00400462: F9 FD ftrv xmtrx,fv8
00001234: FD FD ftrv xmtrx,fv12
00001234: F5 FD ftrv xmtrx,fv4
00001234: F1 FD ftrv xmtrx,fv0
00001234: F9 FD ftrv xmtrx,fv8
00008000: F5 FD ftrv xmtrx,fv4
00008000: FD FD ftrv xmtrx,fv12
00008000: F9 FD ftrv xmtrx,fv8
00008000: F1 FD ftrv xmtrx,fv0
# 1111nnn001011101 "fabs DRn"
00000000: FE 5D fabs fr14
00000000: FC 5D fabs fr12
00000000: F4 5D fabs fr4
00000000: F6 5D fabs fr6
FFFFFFFC: FE 5D fabs fr14
FFFFFFFC: F4 5D fabs fr4
FFFFFFFC: FA 5D fabs fr10
FFFFFFFC: FC 5D fabs fr12
00400462: FA 5D fabs fr10
00400462: FE 5D fabs fr14
00400462: F6 5D fabs fr6
00400462: F4 5D fabs fr4
00001234: FA 5D fabs fr10
00001234: F6 5D fabs fr6
00001234: F2 5D fabs fr2
00001234: F8 5D fabs fr8
00008000: F8 5D fabs fr8
00008000: F0 5D fabs fr0
00008000: FE 5D fabs fr14
00008000: FC 5D fabs fr12
# 1111nnn001001101 "fneg DRn"
00000000: FC 4D fneg fr12
00000000: F0 4D fneg fr0
00000000: F6 4D fneg fr6
00000000: F2 4D fneg fr2
FFFFFFFC: FC 4D fneg fr12
FFFFFFFC: FA 4D fneg fr10
FFFFFFFC: FE 4D fneg fr14
FFFFFFFC: F8 4D fneg fr8
00400462: F2 4D fneg fr2
00400462: FE 4D fneg fr14
00400462: F4 4D fneg fr4
00400462: FC 4D fneg fr12
00001234: FA 4D fneg fr10
00001234: F8 4D fneg fr8
00001234: FC 4D fneg fr12
00001234: F6 4D fneg fr6
00008000: FC 4D fneg fr12
00008000: F2 4D fneg fr2
00008000: F4 4D fneg fr4
00008000: F8 4D fneg fr8
# 1111nnn0mmm00000 "fadd DRm,DRn"
00000000: F6 E0 fadd fr14,fr6
00000000: F0 20 fadd fr2,fr0
00000000: FA E0 fadd fr14,fr10
00000000: F8 C0 fadd fr12,fr8
FFFFFFFC: F0 C0 fadd fr12,fr0
FFFFFFFC: F4 E0 fadd fr14,fr4
FFFFFFFC: F6 C0 fadd fr12,fr6
FFFFFFFC: FA 40 fadd fr4,fr10
00400462: F6 60 fadd fr6,fr6
00400462: F2 20 fadd fr2,fr2
00400462: F8 80 fadd fr8,fr8
00400462: F0 A0 fadd fr10,fr0
00001234: FE C0 fadd fr12,fr14
00001234: F6 C0 fadd fr12,fr6
00001234: F0 20 fadd fr2,fr0
00001234: F0 A0 fadd fr10,fr0
00008000: F6 80 fadd fr8,fr6
00008000: F4 20 fadd fr2,fr4
00008000: FC 60 fadd fr6,fr12
00008000: FC 80 fadd fr8,fr12
# 1111nnn0mmm00001 "fsub DRm,DRn"
00000000: FE 81 fsub fr8,fr14
00000000: F6 C1 fsub fr12,fr6
00000000: F4 C1 fsub fr12,fr4
00000000: FC E1 fsub fr14,fr12
FFFFFFFC: F2 21 fsub fr2,fr2
FFFFFFFC: FE C1 fsub fr12,fr14
FFFFFFFC: F0 61 fsub fr6,fr0
FFFFFFFC: F6 C1 fsub fr12,fr6
00400462: F2 81 fsub fr8,fr2
00400462: FE 61 fsub fr6,fr14
00400462: FC E1 fsub fr14,fr12
00400462: FE 81 fsub fr8,fr14
00001234: F2 E1 fsub fr14,fr2
00001234: F0 41 fsub fr4,fr0
00001234: F4 01 fsub fr0,fr4
00001234: F0 A1 fsub fr10,fr0
00008000: FA C1 fsub fr12,fr10
00008000: FE 01 fsub fr0,fr14
00008000: FE 81 fsub fr8,fr14
00008000: FE 41 fsub fr4,fr14
# 1111nnn0mmm00010 "fmul DRm,DRn"
00000000: F6 42 fmul fr4,fr6
00000000: F8 E2 fmul fr14,fr8
00000000: FA 62 fmul fr6,fr10
00000000: F8 82 fmul fr8,fr8
FFFFFFFC: FC 62 fmul fr6,fr12
FFFFFFFC: FE 42 fmul fr4,fr14
FFFFFFFC: FA 02 fmul fr0,fr10
FFFFFFFC: F0 22 fmul fr2,fr0
00400462: F6 A2 fmul fr10,fr6
00400462: F6 42 fmul fr4,fr6
00400462: F2 C2 fmul fr12,fr2
00400462: F2 42 fmul fr4,fr2
00001234: F6 82 fmul fr8,fr6
00001234: FC 42 fmul fr4,fr12
00001234: F8 02 fmul fr0,fr8
00001234: F2 22 fmul fr2,fr2
00008000: FA 82 fmul fr8,fr10
00008000: F0 42 fmul fr4,fr0
00008000: F8 E2 fmul fr14,fr8
00008000: FC 82 fmul fr8,fr12
# 1111nnn0mmm00011 "fdiv DRm,DRn"
00000000: FE 63 fdiv fr6,fr14
00000000: FC C3 fdiv fr12,fr12
00000000: F4 43 fdiv fr4,fr4
00000000: FC 23 fdiv fr2,fr12
FFFFFFFC: FC C3 fdiv fr12,fr12
FFFFFFFC: F2 23 fdiv fr2,fr2
FFFFFFFC: F8 63 fdiv fr6,fr8
FFFFFFFC: FE 63 fdiv fr6,fr14
00400462: F6 E3 fdiv fr14,fr6
00400462: FE 23 fdiv fr2,fr14
00400462: F8 63 fdiv fr6,fr8
00400462: F6 83 fdiv fr8,fr6
00001234: F4 83 fdiv fr8,fr4
00001234: FC 43 fdiv fr4,fr12
00001234: F8 43 fdiv fr4,fr8
00001234: F8 A3 fdiv fr10,fr8
00008000: FC 83 fdiv fr8,fr12
00008000: F8 E3 fdiv fr14,fr8
00008000: F2 23 fdiv fr2,fr2
00008000: F6 63 fdiv fr6,fr6
# 1111nnn001101101 "fsqrt DRn"
00000000: FE 6D fsqrt fr14
00000000: F2 6D fsqrt fr2
00000000: F0 6D fsqrt fr0
00000000: FC 6D fsqrt fr12
FFFFFFFC: F0 6D fsqrt fr0
FFFFFFFC: FC 6D fsqrt fr12
FFFFFFFC: F6 6D fsqrt fr6
FFFFFFFC: FE 6D fsqrt fr14
00400462: FE 6D fsqrt fr14
00400462: F8 6D fsqrt fr8
00400462: F4 6D fsqrt fr4
00400462: FC 6D fsqrt fr12
00001234: F8 6D fsqrt fr8
00001234: F0 6D fsqrt fr0
00001234: FC 6D fsqrt fr12
00001234: FE 6D fsqrt fr14
00008000: F8 6D fsqrt fr8
00008000: FA 6D fsqrt fr10
00008000: F0 6D fsqrt fr0
00008000: F2 6D fsqrt fr2
# 1111nnn0mmm00100 "fcmp/eq DRm,DRn"
00000000: FA A4 fcmp/eq fr10,fr10
00000000: F6 84 fcmp/eq fr8,fr6
00000000: FA 64 fcmp/eq fr6,fr10
00000000: F8 E4 fcmp/eq fr14,fr8
FFFFFFFC: F4 24 fcmp/eq fr2,fr4
FFFFFFFC: F0 E4 fcmp/eq fr14,fr0
FFFFFFFC: FA 64 fcmp/eq fr6,fr10
FFFFFFFC: FA C4 fcmp/eq fr12,fr10
00400462: F0 84 fcmp/eq fr8,fr0
00400462: F2 E4 fcmp/eq fr14,fr2
00400462: F0 64 fcmp/eq fr6,fr0
00400462: F2 64 fcmp/eq fr6,fr2
00001234: FA 04 fcmp/eq fr0,fr10
00001234: F6 E4 fcmp/eq fr14,fr6
00001234: F0 24 fcmp/eq fr2,fr0
00001234: F2 24 fcmp/eq fr2,fr2
00008000: F4 A4 fcmp/eq fr10,fr4
00008000: FA 24 fcmp/eq fr2,fr10
00008000: F2 84 fcmp/eq fr8,fr2
00008000: F6 C4 fcmp/eq fr12,fr6
# 1111nnn0mmm00101 "fcmp/gt DRm,DRn"
00000000: F0 25 fcmp/gt fr2,fr0
00000000: FE 25 fcmp/gt fr2,fr14
00000000: FE 05 fcmp/gt fr0,fr14
00000000: F8 A5 fcmp/gt fr10,fr8
FFFFFFFC: F8 A5 fcmp/gt fr10,fr8
FFFFFFFC: F0 65 fcmp/gt fr6,fr0
FFFFFFFC: F4 45 fcmp/gt fr4,fr4
FFFFFFFC: FC C5 fcmp/gt fr12,fr12
00400462: F0 C5 fcmp/gt fr12,fr0
00400462: F4 E5 fcmp/gt fr14,fr4
00400462: F8 85 fcmp/gt fr8,fr8
00400462: F4 65 fcmp/gt fr6,fr4
00001234: FE 25 fcmp/gt fr2,fr14
00001234: FC A5 fcmp/gt fr10,fr12
00001234: F4 C5 fcmp/gt fr12,fr4
00001234: F4 25 fcmp/gt fr2,fr4
00008000: F8 85 fcmp/gt fr8,fr8
00008000: F2 05 fcmp/gt fr0,fr2
00008000: FA 85 fcmp/gt fr8,fr10
00008000: FC E5 fcmp/gt fr14,fr12
# 1111nnn000101101 "float FPUL,DRn"
00000000: F6 2D float fpul,fr6
00000000: FC 2D float fpul,fr12
00000000: F4 2D float fpul,fr4
00000000: FA 2D float fpul,fr10
FFFFFFFC: F6 2D float fpul,fr6
FFFFFFFC: F8 2D float fpul,fr8
FFFFFFFC: F2 2D float fpul,fr2
FFFFFFFC: FC 2D float fpul,fr12
00400462: F4 2D float fpul,fr4
00400462: FC 2D float fpul,fr12
00400462: F6 2D float fpul,fr6
00400462: F8 2D float fpul,fr8
00001234: F0 2D float fpul,fr0
00001234: F2 2D float fpul,fr2
00001234: FC 2D float fpul,fr12
00001234: F6 2D float fpul,fr6
00008000: FE 2D float fpul,fr14
00008000: F6 2D float fpul,fr6
00008000: F2 2D float fpul,fr2
00008000: F8 2D float fpul,fr8
# 1111mmm000111101 "ftrc DRm,FPUL"
00000000: F2 3D ftrc fr2,fpul
00000000: FC 3D ftrc fr12,fpul
00000000: F6 3D ftrc fr6,fpul
00000000: FE 3D ftrc fr14,fpul
FFFFFFFC: FA 3D ftrc fr10,fpul
FFFFFFFC: FC 3D ftrc fr12,fpul
FFFFFFFC: F6 3D ftrc fr6,fpul
FFFFFFFC: F4 3D ftrc fr4,fpul
00400462: F4 3D ftrc fr4,fpul
00400462: F8 3D ftrc fr8,fpul
00400462: FA 3D ftrc fr10,fpul
00400462: FE 3D ftrc fr14,fpul
00001234: F6 3D ftrc fr6,fpul
00001234: F8 3D ftrc fr8,fpul
00001234: FA 3D ftrc fr10,fpul
00001234: F2 3D ftrc fr2,fpul
00008000: FE 3D ftrc fr14,fpul
00008000: F6 3D ftrc fr6,fpul
00008000: F0 3D ftrc fr0,fpul
00008000: FA 3D ftrc fr10,fpul
# 1111mmm010111101 "fcnvds DRm,FPUL"
00000000: F0 BD fcnvds dr0,fpul
00000000: FE BD fcnvds dr14,fpul
00000000: F6 BD fcnvds dr6,fpul
00000000: F4 BD fcnvds dr4,fpul
FFFFFFFC: F6 BD fcnvds dr6,fpul
FFFFFFFC: F8 BD fcnvds dr8,fpul
FFFFFFFC: F2 BD fcnvds dr2,fpul
FFFFFFFC: F4 BD fcnvds dr4,fpul
00400462: F4 BD fcnvds dr4,fpul
00400462: FE BD fcnvds dr14,fpul
00400462: F0 BD fcnvds dr0,fpul
00400462: FA BD fcnvds dr10,fpul
00001234: F4 BD fcnvds dr4,fpul
00001234: F6 BD fcnvds dr6,fpul
00001234: FA BD fcnvds dr10,fpul
00001234: FC BD fcnvds dr12,fpul
00008000: F2 BD fcnvds dr2,fpul
00008000: F4 BD fcnvds dr4,fpul
00008000: FC BD fcnvds dr12,fpul
00008000: F6 BD fcnvds dr6,fpul
# 1111nnn010101101 "fcnvsd FPUL,DRn"
00000000: FA AD fcnvsd fpul,dr10
00000000: F6 AD fcnvsd fpul,dr6
00000000: FE AD fcnvsd fpul,dr14
00000000: F2 AD fcnvsd fpul,dr2
FFFFFFFC: F6 AD fcnvsd fpul,dr6
FFFFFFFC: F2 AD fcnvsd fpul,dr2
FFFFFFFC: F4 AD fcnvsd fpul,dr4
FFFFFFFC: FC AD fcnvsd fpul,dr12
00400462: F0 AD fcnvsd fpul,dr0
00400462: FE AD fcnvsd fpul,dr14
00400462: F2 AD fcnvsd fpul,dr2
00400462: FA AD fcnvsd fpul,dr10
00001234: F8 AD fcnvsd fpul,dr8
00001234: FC AD fcnvsd fpul,dr12
00001234: F6 AD fcnvsd fpul,dr6
00001234: FE AD fcnvsd fpul,dr14
00008000: F6 AD fcnvsd fpul,dr6
00008000: FE AD fcnvsd fpul,dr14
00008000: F8 AD fcnvsd fpul,dr8
00008000: F4 AD fcnvsd fpul,dr4
# 0100mmmm01101010 "lds Rm,FPSCR"
00000000: 47 6A lds r7,fpscr
00000000: 4F 6A lds r15,fpscr
00000000: 48 6A lds r8,fpscr
00000000: 42 6A lds r2,fpscr
FFFFFFFC: 41 6A lds r1,fpscr
FFFFFFFC: 46 6A lds r6,fpscr
FFFFFFFC: 4E 6A lds r14,fpscr
FFFFFFFC: 44 6A lds r4,fpscr
00400462: 4F 6A lds r15,fpscr
00400462: 4B 6A lds r11,fpscr
00400462: 48 6A lds r8,fpscr
00400462: 4D 6A lds r13,fpscr
00001234: 49 6A lds r9,fpscr
00001234: 44 6A lds r4,fpscr
00001234: 47 6A lds r7,fpscr
00001234: 4D 6A lds r13,fpscr
00008000: 4F 6A lds r15,fpscr
00008000: 43 6A lds r3,fpscr
00008000: 48 6A lds r8,fpscr
00008000: 40 6A lds r0,fpscr
# 0000nnnn01101010 "sts FPSCR,Rn"
00000000: 0F 6A sts fpscr,r15
00000000: 0D 6A sts fpscr,r13
00000000: 04 6A sts fpscr,r4
00000000: 02 6A sts fpscr,r2
FFFFFFFC: 00 6A sts fpscr,r0
FFFFFFFC: 07 6A sts fpscr,r7
FFFFFFFC: 0A 6A sts fpscr,r10
FFFFFFFC: 04 6A sts fpscr,r4
00400462: 0D 6A sts fpscr,r13
00400462: 07 6A sts fpscr,r7
00400462: 01 6A sts fpscr,r1
00400462: 0A 6A sts fpscr,r10
00001234: 0D 6A sts fpscr,r13
00001234: 07 6A sts fpscr,r7
00001234: 08 6A sts fpscr,r8
00001234: 0A 6A sts fpscr,r10
00008000: 0C 6A sts fpscr,r12
00008000: 0F 6A sts fpscr,r15
00008000: 0B 6A sts fpscr,r11
00008000: 0E 6A sts fpscr,r14
# 0100mmmm01100110 "lds.l @Rm+,FPSCR"
00000000: 4B 66 lds.l @r11+,fpscr
00000000: 43 66 lds.l @r3+,fpscr
00000000: 40 66 lds.l @r0+,fpscr
00000000: 4F 66 lds.l @r15+,fpscr
FFFFFFFC: 42 66 lds.l @r2+,fpscr
FFFFFFFC: 47 66 lds.l @r7+,fpscr
FFFFFFFC: 41 66 lds.l @r1+,fpscr
FFFFFFFC: 43 66 lds.l @r3+,fpscr
00400462: 4C 66 lds.l @r12+,fpscr
00400462: 49 66 lds.l @r9+,fpscr
00400462: 42 66 lds.l @r2+,fpscr
00400462: 44 66 lds.l @r4+,fpscr
00001234: 42 66 lds.l @r2+,fpscr
00001234: 4C 66 lds.l @r12+,fpscr
00001234: 40 66 lds.l @r0+,fpscr
00001234: 4A 66 lds.l @r10+,fpscr
00008000: 4E 66 lds.l @r14+,fpscr
00008000: 4B 66 lds.l @r11+,fpscr
00008000: 47 66 lds.l @r7+,fpscr
00008000: 4C 66 lds.l @r12+,fpscr
# 0100nnnn01100010 "sts.l FPSCR,@-Rn"
00000000: 45 62 sts.l fpscr,@-r5
00000000: 4F 62 sts.l fpscr,@-r15
00000000: 49 62 sts.l fpscr,@-r9
00000000: 48 62 sts.l fpscr,@-r8
FFFFFFFC: 47 62 sts.l fpscr,@-r7
FFFFFFFC: 46 62 sts.l fpscr,@-r6
FFFFFFFC: 4B 62 sts.l fpscr,@-r11
FFFFFFFC: 41 62 sts.l fpscr,@-r1
00400462: 40 62 sts.l fpscr,@-r0
00400462: 4A 62 sts.l fpscr,@-r10
00400462: 43 62 sts.l fpscr,@-r3
00400462: 49 62 sts.l fpscr,@-r9
00001234: 4A 62 sts.l fpscr,@-r10
00001234: 44 62 sts.l fpscr,@-r4
00001234: 4F 62 sts.l fpscr,@-r15
00001234: 46 62 sts.l fpscr,@-r6
00008000: 4F 62 sts.l fpscr,@-r15
00008000: 42 62 sts.l fpscr,@-r2
00008000: 44 62 sts.l fpscr,@-r4
00008000: 41 62 sts.l fpscr,@-r1
# 0100mmmm01011010 "lds Rm,FPUL"
00000000: 49 5A lds r9,fpul
00000000: 44 5A lds r4,fpul
00000000: 48 5A lds r8,fpul
00000000: 47 5A lds r7,fpul
FFFFFFFC: 4C 5A lds r12,fpul
FFFFFFFC: 40 5A lds r0,fpul
FFFFFFFC: 44 5A lds r4,fpul
FFFFFFFC: 45 5A lds r5,fpul
00400462: 46 5A lds r6,fpul
00400462: 4A 5A lds r10,fpul
00400462: 48 5A lds r8,fpul
00400462: 47 5A lds r7,fpul
00001234: 4E 5A lds r14,fpul
00001234: 4C 5A lds r12,fpul
00001234: 4D 5A lds r13,fpul
00001234: 45 5A lds r5,fpul
00008000: 4F 5A lds r15,fpul
00008000: 4D 5A lds r13,fpul
00008000: 47 5A lds r7,fpul
00008000: 44 5A lds r4,fpul
# 0000nnnn01011010 "sts FPUL,Rn"
00000000: 0D 5A sts fpul,r13
00000000: 0B 5A sts fpul,r11
00000000: 03 5A sts fpul,r3
00000000: 08 5A sts fpul,r8
FFFFFFFC: 0A 5A sts fpul,r10
FFFFFFFC: 02 5A sts fpul,r2
FFFFFFFC: 01 5A sts fpul,r1
FFFFFFFC: 0D 5A sts fpul,r13
00400462: 02 5A sts fpul,r2
00400462: 0C 5A sts fpul,r12
00400462: 0D 5A sts fpul,r13
00400462: 05 5A sts fpul,r5
00001234: 0A 5A sts fpul,r10
00001234: 07 5A sts fpul,r7
00001234: 0B 5A sts fpul,r11
00001234: 00 5A sts fpul,r0
00008000: 07 5A sts fpul,r7
00008000: 08 5A sts fpul,r8
00008000: 06 5A sts fpul,r6
00008000: 0B 5A sts fpul,r11
# 0100mmmm01010110 "lds.l @Rm+,FPUL"
00000000: 43 56 lds.l @r3+,fpul
00000000: 42 56 lds.l @r2+,fpul
00000000: 4B 56 lds.l @r11+,fpul
00000000: 4C 56 lds.l @r12+,fpul
FFFFFFFC: 4F 56 lds.l @r15+,fpul
FFFFFFFC: 42 56 lds.l @r2+,fpul
FFFFFFFC: 47 56 lds.l @r7+,fpul
FFFFFFFC: 4E 56 lds.l @r14+,fpul
00400462: 43 56 lds.l @r3+,fpul
00400462: 4C 56 lds.l @r12+,fpul
00400462: 47 56 lds.l @r7+,fpul
00400462: 41 56 lds.l @r1+,fpul
00001234: 40 56 lds.l @r0+,fpul
00001234: 4E 56 lds.l @r14+,fpul
00001234: 46 56 lds.l @r6+,fpul
00001234: 4B 56 lds.l @r11+,fpul
00008000: 4D 56 lds.l @r13+,fpul
00008000: 42 56 lds.l @r2+,fpul
00008000: 4C 56 lds.l @r12+,fpul
00008000: 41 56 lds.l @r1+,fpul
# 0100nnnn01010010 "sts.l FPUL,@-Rn"
00000000: 40 52 sts.l fpul,@-r0
00000000: 49 52 sts.l fpul,@-r9
00000000: 45 52 sts.l fpul,@-r5
00000000: 41 52 sts.l fpul,@-r1
FFFFFFFC: 40 52 sts.l fpul,@-r0
FFFFFFFC: 4B 52 sts.l fpul,@-r11
FFFFFFFC: 4D 52 sts.l fpul,@-r13
FFFFFFFC: 4A 52 sts.l fpul,@-r10
00400462: 43 52 sts.l fpul,@-r3
00400462: 4E 52 sts.l fpul,@-r14
00400462: 45 52 sts.l fpul,@-r5
00400462: 46 52 sts.l fpul,@-r6
00001234: 4D 52 sts.l fpul,@-r13
00001234: 40 52 sts.l fpul,@-r0
00001234: 4A 52 sts.l fpul,@-r10
00001234: 46 52 sts.l fpul,@-r6
00008000: 4E 52 sts.l fpul,@-r14
00008000: 4D 52 sts.l fpul,@-r13
00008000: 44 52 sts.l fpul,@-r4
00008000: 49 52 sts.l fpul,@-r9
# 1111101111111101 "frchg"
00000000: FB FD frchg
FFFFFFFC: FB FD frchg
00400462: FB FD frchg
00001234: FB FD frchg
00008000: FB FD frchg
# 1111001111111101 "fschg"
00000000: F3 FD fschg
FFFFFFFC: F3 FD fschg
00400462: F3 FD fschg
00001234: F3 FD fschg
00008000: F3 FD fschg
